     1                                  ; Mostrar en pantalla seis letras de 'A' a 'F' que se muevan por la pantalla.
     2                                  ; Tanto la posición inicial como la velocidad (fija) debe ser aleatoria.
     3                                  ; Al llegar al extremo de la pantalla, la letra debe rebotar.
     4                                  ; El código debe estar en modo protegido con segmentos de 32 bits.
     5                                  
     6                                  ; Hecho por Dario Alpern el 13/04/2018
     7                                  
     8                                  CANT_LETRAS   equ 6
     9                                  CANT_FILAS    equ 25
    10                                  COLS_POR_FILA equ 80
    11                                  MAX_VELOCIDAD equ 64 ;Un cuarto de fila o columna por tick de reloj.      
    12                                  BITS 16
    13                                  
    14                                  inicio:
    15                                  
    16                                  %include "init_pci.inc"
    17                              <1> 
    18                              <1> 
    19                              <1> 
    20                              <1> 
    21                              <1> %macro 		leer_registro_pci 1 				; 1 parámetro
    22                              <1> 	mov 	eax, %1
    23                              <1> 	or 		eax, esi
    24                              <1> 	mov		dx, 0x0CF8
    25                              <1> 	out 	dx, eax    							; Escribir palabra de configuración.
    26                              <1> 	mov 	dx, 0x0CFC
    27                              <1> 	in 		eax, dx   							; Verificar si existe el dispositivo.
    28                              <1> %endmacro
    29                              <1> 
    30                              <1> ;--------------------------------------------------------------------------------
    31                              <1> ; Salto a punto de entrada
    32                              <1> ;--------------------------------------------------------------------------------
    33 00000000 E9FC10              <1> 	jmp 	bios_init	; Inicio del codigo de inicializacion
    34                              <1> 
    35                              <1> ;--------------------------------------------------------------------------------
    36                              <1> ; Tablas de datos para inicializacion
    37                              <1> ;--------------------------------------------------------------------------------
    38                              <1> seq_regs_data:
    39 00000003 03                  <1> 	db 		0x03  		; Reset Register
    40 00000004 00                  <1> 	db 		0x00  		; Clocking Mode Register
    41 00000005 03                  <1> 	db 		0x03  		; Map Mask Register
    42 00000006 00                  <1> 	db 		0x00  		; Character Map Select Register
    43 00000007 02                  <1> 	db 		0x02 		; Sequencer Memory Mode Register
    44                              <1> 
    45                              <1> crtc_regs_data:
    46 00000008 5F                  <1> 	db 		0x5F  		; Cantidad caracteres menos 5 incluyendo borde.
    47 00000009 4F                  <1> 	db 		0x4F  		; Cantidad caracteres visualizados menos 1.
    48 0000000A 50                  <1> 	db 		0x50  		; Carácter en el que comienza el blanqueo.
    49 0000000B 82                  <1> 	db 		0x82  		; Fin de blanqueo horizontal.
    50 0000000C 55                  <1> 	db 		0x55  		; Carácter donde comienza el retrazo horizontal.
    51 0000000D 81                  <1> 	db 		0x81  		; Fin del retrazo horizontal.
    52 0000000E BF                  <1> 	db 		0xBF  		; Cantidad de scan lines - 2 (0x1BF = 447).
    53 0000000F 1F                  <1> 	db 		0x1F  		; Bits 9 y 8 de varios registros.
    54 00000010 00                  <1> 	db 		0x00  		; Primer scan line a ser visualizado.
    55 00000011 4F                  <1> 	db 		0x4F  		; Bits 4-0: máxima línea de scan.
    56 00000012 0D                  <1> 	db 		0x0D  		; Scan line donde comienza el cursor.
    57 00000013 0E                  <1> 	db 		0x0E  		; Scan line donde termina el cursor.
    58 00000014 00                  <1> 	db 		0x00 	 	; Bits 15-8 del inicio del buffer de video.
    59 00000015 00                  <1> 	db	 	0x00 	 	; Bits 7-0 del inicio del buffer de video.
    60 00000016 05                  <1> 	db		0x05 		; Bits 15-8 de la posición del cursor en pantalla.
    61 00000017 50                  <1> 	db 		0x50 		; Bits 7-0 de la posición del cursor en pantalla.
    62 00000018 9C                  <1> 	db 		0x9C  		; Inicio retrazado vertical (0x19C = 412).
    63 00000019 8E                  <1> 	db 		0x8E  		; Fin retrazado vertical (bits 3-0) y protección de
    64                              <1> 						; escritura para registros cero a 7 (bit 7).
    65 0000001A 8F                  <1> 	db 		0x8F  		; Fin de refresco vertical (0x18F = 409)
    66 0000001B 28                  <1> 	db 		0x28  		; Cantidad de bytes por scan line dividido 4.
    67 0000001C 1F                  <1> 	db 		0x1F  		; Scan line para el subrayado.
    68 0000001D 96                  <1> 	db 		0x96  		; Inicio blanqueo vertical (0x196 = 406)
    69 0000001E B9                  <1> 	db 		0xB9  		; Fin blanqueo vertical (0x1B9 = 441)
    70 0000001F A3                  <1> 	db 		0xA3  		; Registro de control de modo.
    71 00000020 FF                  <1> 	db 		0xFF  		; Registro de comparación de líneas.
    72                              <1> 
    73                              <1> graphics_regs_data:
    74 00000021 00                  <1> 	db 		0x00  		; Set/Reset Register
    75 00000022 00                  <1> 	db 		0x00  		; Enable Set/Reset Register
    76 00000023 00                  <1> 	db 		0x00  		; Color Compare Register
    77 00000024 00                  <1> 	db 		0x00  		; Data Rotate Register
    78 00000025 00                  <1> 	db 		0x00  		; Graphics Mode Register  
    79 00000026 10                  <1> 	db 		0x10  		; Miscellaneous Graphics Register
    80 00000027 0E                  <1> 	db 		0x0E  		; Color Don't Care Register
    81 00000028 00                  <1> 	db 		0x00  		; Bit Mask Register
    82 00000029 FF                  <1> 	db 		0xFF
    83                              <1> 
    84                              <1> attrcon_regs_data:
    85 0000002A 00                  <1> 	db 		0x00  		; Paleta para color 0.
    86 0000002B 01                  <1> 	db 		0x01  		; Paleta para color 1.
    87 0000002C 02                  <1> 	db 		0x02  		; Paleta para color 2.
    88 0000002D 03                  <1> 	db 		0x03  		; Paleta para color 3.
    89 0000002E 04                  <1> 	db 		0x04  		; Paleta para color 4.
    90 0000002F 05                  <1> 	db 		0x05  		; Paleta para color 5.
    91 00000030 14                  <1> 	db 		0x14  		; Paleta para color 6.
    92 00000031 07                  <1> 	db 		0x07  		; Paleta para color 7.
    93 00000032 38                  <1> 	db 		0x38  		; Paleta para color 8.
    94 00000033 39                  <1> 	db 		0x39  		; Paleta para color 9.
    95 00000034 3A                  <1> 	db 		0x3A  		; Paleta para color 10.
    96 00000035 3B                  <1> 	db 		0x3B  		; Paleta para color 11.
    97 00000036 3C                  <1> 	db 		0x3C  		; Paleta para color 12.
    98 00000037 3D                  <1> 	db 		0x3D  		; Paleta para color 13.
    99 00000038 3E                  <1> 	db 		0x3E  		; Paleta para color 14.
   100 00000039 3F                  <1> 	db 		0x3F  		; Paleta para color 15.
   101 0000003A 0C                  <1> 	db 		0x0C  		; Registro de control de atributos.
   102                              <1> 						; * Bit 7: Fuente de los bits de video P5 y P4 al DAC de video
   103                              <1> 						; * Bit 6: Habilitación de 256 colores.
   104                              <1> 						; * Bit 5: Modo de desplazamiento de píxeles
   105                              <1> 						; * Bit 4: No usado
   106                              <1> 						; * Bit 3: "1" para habilitar blink, "0" para tener 16 colores de fondo.
   107                              <1> 						; * Bit 2: Replicación de octava a novena columna para caracteres
   108                              <1> 						;         0xC0 - 0xDF (para dibujar bloques en modo texto).
   109                              <1> 						; * Bit 1: Sin uso
   110                              <1> 						; * Bit 0: Habilitación de gráficos.
   111 0000003B 00                  <1> 	db 		0x00  		; Color usado para el borde en algunos modos.
   112 0000003C 0F                  <1> 	db 		0x0F  		; Habilitación de planos de color.
   113 0000003D 08                  <1> 	db 		0x08  		; Desplazamiento de píxeles de video hacia la izquierda.
   114 0000003E 00                  <1> 	db 		0x00  		; Registro de selección de color.
   115                              <1> 
   116                              <1> palette_data:
   117 0000003F 000000              <1> 	db 		0x00, 0x00, 0x00    ;RGB of color #0
   118 00000042 00002A              <1> 	db 		0x00, 0x00, 0x2a
   119 00000045 002A00              <1> 	db 		0x00, 0x2a, 0x00
   120 00000048 002A2A              <1> 	db 		0x00, 0x2a, 0x2a
   121 0000004B 2A0000              <1> 	db 		0x2a, 0x00, 0x00    ;RGB of color #4
   122 0000004E 2A002A              <1> 	db 		0x2a, 0x00, 0x2a
   123 00000051 2A2A00              <1> 	db 		0x2a, 0x2a, 0x00
   124 00000054 2A2A2A              <1> 	db 		0x2a, 0x2a, 0x2a
   125 00000057 000015              <1> 	db 		0x00, 0x00, 0x15    ;RGB of color #8
   126 0000005A 00003F              <1> 	db 		0x00, 0x00, 0x3f
   127 0000005D 002A15              <1> 	db 		0x00, 0x2a, 0x15
   128 00000060 002A3F              <1> 	db 		0x00, 0x2a, 0x3f
   129 00000063 2A0015              <1> 	db 		0x2a, 0x00, 0x15    ;RGB of color #12
   130 00000066 2A003F              <1> 	db 		0x2a, 0x00, 0x3f
   131 00000069 2A2A15              <1> 	db 		0x2a, 0x2a, 0x15
   132 0000006C 2A2A3F              <1> 	db 		0x2a, 0x2a, 0x3f
   133 0000006F 001500              <1> 	db 		0x00, 0x15, 0x00    ;RGB of color #16
   134 00000072 00152A              <1> 	db 		0x00, 0x15, 0x2a
   135 00000075 003F00              <1> 	db		0x00, 0x3f, 0x00
   136 00000078 003F2A              <1> 	db 		0x00, 0x3f, 0x2a
   137 0000007B 2A1500              <1> 	db 		0x2a, 0x15, 0x00    ;RGB of color #20
   138 0000007E 2A152A              <1> 	db 		0x2a, 0x15, 0x2a
   139 00000081 2A3F00              <1> 	db 		0x2a, 0x3f, 0x00
   140 00000084 2A3F2A              <1> 	db 		0x2a, 0x3f, 0x2a
   141 00000087 001515              <1> 	db 		0x00, 0x15, 0x15    ;RGB of color #24
   142 0000008A 00153F              <1> 	db 		0x00, 0x15, 0x3f
   143 0000008D 003F15              <1> 	db 		0x00, 0x3f, 0x15
   144 00000090 003F3F              <1> 	db 		0x00, 0x3f, 0x3f
   145 00000093 2A1515              <1> 	db 		0x2a, 0x15, 0x15    ;RGB of color #28
   146 00000096 2A153F              <1> 	db 		0x2a, 0x15, 0x3f
   147 00000099 2A3F15              <1> 	db 		0x2a, 0x3f, 0x15
   148 0000009C 2A3F3F              <1> 	db 		0x2a, 0x3f, 0x3f
   149 0000009F 150000              <1> 	db 		0x15, 0x00, 0x00    ;RGB of color #32
   150 000000A2 15002A              <1> 	db 		0x15, 0x00, 0x2a
   151 000000A5 152A00              <1> 	db 		0x15, 0x2a, 0x00
   152 000000A8 152A2A              <1> 	db 		0x15, 0x2a, 0x2a
   153 000000AB 3F0000              <1> 	db 		0x3f, 0x00, 0x00    ;RGB of color #36
   154 000000AE 3F002A              <1> 	db 		0x3f, 0x00, 0x2a
   155 000000B1 3F2A00              <1> 	db 		0x3f, 0x2a, 0x00
   156 000000B4 3F2A2A              <1> 	db 		0x3f, 0x2a, 0x2a
   157 000000B7 150015              <1> 	db 		0x15, 0x00, 0x15    ;RGB of color #40
   158 000000BA 15003F              <1> 	db 		0x15, 0x00, 0x3f
   159 000000BD 152A15              <1> 	db 		0x15, 0x2a, 0x15
   160 000000C0 152A3F              <1> 	db 		0x15, 0x2a, 0x3f
   161 000000C3 3F0015              <1> 	db 		0x3f, 0x00, 0x15    ;RGB of color #44
   162 000000C6 3F003F              <1> 	db 		0x3f, 0x00, 0x3f
   163 000000C9 3F2A15              <1> 	db 		0x3f, 0x2a, 0x15
   164 000000CC 3F2A3F              <1> 	db 		0x3f, 0x2a, 0x3f
   165 000000CF 151500              <1> 	db 		0x15, 0x15, 0x00    ;RGB of color #48
   166 000000D2 15152A              <1> 	db 		0x15, 0x15, 0x2a
   167 000000D5 153F00              <1> 	db 		0x15, 0x3f, 0x00
   168 000000D8 153F2A              <1> 	db 		0x15, 0x3f, 0x2a
   169 000000DB 3F1500              <1> 	db 		0x3f, 0x15, 0x00    ;RGB of color #52
   170 000000DE 3F152A              <1> 	db 		0x3f, 0x15, 0x2a
   171 000000E1 3F3F00              <1> 	db 		0x3f, 0x3f, 0x00
   172 000000E4 3F3F2A              <1> 	db 		0x3f, 0x3f, 0x2a
   173 000000E7 151515              <1> 	db 		0x15, 0x15, 0x15    ;RGB of color #56
   174 000000EA 15153F              <1> 	db 		0x15, 0x15, 0x3f
   175 000000ED 153F15              <1> 	db 		0x15, 0x3f, 0x15
   176 000000F0 153F3F              <1> 	db 		0x15, 0x3f, 0x3f
   177 000000F3 3F1515              <1> 	db 		0x3f, 0x15, 0x15    ;RGB of color #60
   178 000000F6 3F153F              <1> 	db 		0x3f, 0x15, 0x3f
   179 000000F9 3F3F15              <1> 	db 		0x3f, 0x3f, 0x15
   180 000000FC 3F3F3F              <1> 	db 		0x3f, 0x3f, 0x3f
   181                              <1> 
   182                              <1> ;--------------------------------------------------------------------------------
   183                              <1> ; Fonts de dominio público de Joseph Gil
   184                              <1> ;--------------------------------------------------------------------------------
   185                              <1> font16x8:
   186 000000FF 000000000000000000- <1> 	db 0x00, 0x00, 0x00, 0x00, 0x00, 0x00, 0x00, 0x00, 0x00, 0x00, 0x00, 0x00, 0x00, 0x00, 0x00, 0x00
   187 00000108 00000000000000      <1>
   188 0000010F 00007E81A58181BD99- <1> 	db 0x00, 0x00, 0x7e, 0x81, 0xa5, 0x81, 0x81, 0xbd, 0x99, 0x81, 0x81, 0x7e, 0x00, 0x00, 0x00, 0x00
   189 00000118 81817E00000000      <1>
   190 0000011F 00007EFFDBFFFFC3E7- <1> 	db 0x00, 0x00, 0x7e, 0xff, 0xdb, 0xff, 0xff, 0xc3, 0xe7, 0xff, 0xff, 0x7e, 0x00, 0x00, 0x00, 0x00
   191 00000128 FFFF7E00000000      <1>
   192 0000012F 000000006CFEFEFEFE- <1> 	db 0x00, 0x00, 0x00, 0x00, 0x6c, 0xfe, 0xfe, 0xfe, 0xfe, 0x7c, 0x38, 0x10, 0x00, 0x00, 0x00, 0x00
   193 00000138 7C381000000000      <1>
   194 0000013F 0000000010387CFE7C- <1> 	db 0x00, 0x00, 0x00, 0x00, 0x10, 0x38, 0x7c, 0xfe, 0x7c, 0x38, 0x10, 0x00, 0x00, 0x00, 0x00, 0x00
   195 00000148 38100000000000      <1>
   196 0000014F 000000183C3CE7E7E7- <1> 	db 0x00, 0x00, 0x00, 0x18, 0x3c, 0x3c, 0xe7, 0xe7, 0xe7, 0x18, 0x18, 0x3c, 0x00, 0x00, 0x00, 0x00
   197 00000158 18183C00000000      <1>
   198 0000015F 000000183C7EFFFF7E- <1> 	db 0x00, 0x00, 0x00, 0x18, 0x3c, 0x7e, 0xff, 0xff, 0x7e, 0x18, 0x18, 0x3c, 0x00, 0x00, 0x00, 0x00
   199 00000168 18183C00000000      <1>
   200 0000016F 000000000000183C3C- <1> 	db 0x00, 0x00, 0x00, 0x00, 0x00, 0x00, 0x18, 0x3c, 0x3c, 0x18, 0x00, 0x00, 0x00, 0x00, 0x00, 0x00
   201 00000178 18000000000000      <1>
   202 0000017F FFFFFFFFFFFFE7C3C3- <1> 	db 0xff, 0xff, 0xff, 0xff, 0xff, 0xff, 0xe7, 0xc3, 0xc3, 0xe7, 0xff, 0xff, 0xff, 0xff, 0xff, 0xff
   203 00000188 E7FFFFFFFFFFFF      <1>
   204 0000018F 00000000003C664242- <1> 	db 0x00, 0x00, 0x00, 0x00, 0x00, 0x3c, 0x66, 0x42, 0x42, 0x66, 0x3c, 0x00, 0x00, 0x00, 0x00, 0x00
   205 00000198 663C0000000000      <1>
   206 0000019F FFFFFFFFFFC399BDBD- <1> 	db 0xff, 0xff, 0xff, 0xff, 0xff, 0xc3, 0x99, 0xbd, 0xbd, 0x99, 0xc3, 0xff, 0xff, 0xff, 0xff, 0xff
   207 000001A8 99C3FFFFFFFFFF      <1>
   208 000001AF 00001E0E1A3278CCCC- <1> 	db 0x00, 0x00, 0x1e, 0x0e, 0x1a, 0x32, 0x78, 0xcc, 0xcc, 0xcc, 0xcc, 0x78, 0x00, 0x00, 0x00, 0x00
   209 000001B8 CCCC7800000000      <1>
   210 000001BF 00003C666666663C18- <1> 	db 0x00, 0x00, 0x3c, 0x66, 0x66, 0x66, 0x66, 0x3c, 0x18, 0x7e, 0x18, 0x18, 0x00, 0x00, 0x00, 0x00
   211 000001C8 7E181800000000      <1>
   212 000001CF 00003F333F30303030- <1> 	db 0x00, 0x00, 0x3f, 0x33, 0x3f, 0x30, 0x30, 0x30, 0x30, 0x70, 0xf0, 0xe0, 0x00, 0x00, 0x00, 0x00
   213 000001D8 70F0E000000000      <1>
   214 000001DF 00007F637F63636363- <1> 	db 0x00, 0x00, 0x7f, 0x63, 0x7f, 0x63, 0x63, 0x63, 0x63, 0x67, 0xe7, 0xe6, 0xc0, 0x00, 0x00, 0x00
   215 000001E8 67E7E6C0000000      <1>
   216 000001EF 0000001818DB3CE73C- <1> 	db 0x00, 0x00, 0x00, 0x18, 0x18, 0xdb, 0x3c, 0xe7, 0x3c, 0xdb, 0x18, 0x18, 0x00, 0x00, 0x00, 0x00
   217 000001F8 DB181800000000      <1>
   218 000001FF 0080C0E0F0F8FEF8F0- <1> 	db 0x00, 0x80, 0xc0, 0xe0, 0xf0, 0xf8, 0xfe, 0xf8, 0xf0, 0xe0, 0xc0, 0x80, 0x00, 0x00, 0x00, 0x00
   219 00000208 E0C08000000000      <1>
   220 0000020F 0002060E1E3EFE3E1E- <1> 	db 0x00, 0x02, 0x06, 0x0e, 0x1e, 0x3e, 0xfe, 0x3e, 0x1e, 0x0e, 0x06, 0x02, 0x00, 0x00, 0x00, 0x00
   221 00000218 0E060200000000      <1>
   222 0000021F 0000183C7E1818187E- <1> 	db 0x00, 0x00, 0x18, 0x3c, 0x7e, 0x18, 0x18, 0x18, 0x7e, 0x3c, 0x18, 0x00, 0x00, 0x00, 0x00, 0x00
   223 00000228 3C180000000000      <1>
   224 0000022F 000066666666666666- <1> 	db 0x00, 0x00, 0x66, 0x66, 0x66, 0x66, 0x66, 0x66, 0x66, 0x00, 0x66, 0x66, 0x00, 0x00, 0x00, 0x00
   225 00000238 00666600000000      <1>
   226 0000023F 00007FDBDBDB7B1B1B- <1> 	db 0x00, 0x00, 0x7f, 0xdb, 0xdb, 0xdb, 0x7b, 0x1b, 0x1b, 0x1b, 0x1b, 0x1b, 0x00, 0x00, 0x00, 0x00
   227 00000248 1B1B1B00000000      <1>
   228 0000024F 007CC660386CC6C66C- <1> 	db 0x00, 0x7c, 0xc6, 0x60, 0x38, 0x6c, 0xc6, 0xc6, 0x6c, 0x38, 0x0c, 0xc6, 0x7c, 0x00, 0x00, 0x00
   229 00000258 380CC67C000000      <1>
   230 0000025F 0000000000000000FE- <1> 	db 0x00, 0x00, 0x00, 0x00, 0x00, 0x00, 0x00, 0x00, 0xfe, 0xfe, 0xfe, 0xfe, 0x00, 0x00, 0x00, 0x00
   231 00000268 FEFEFE00000000      <1>
   232 0000026F 0000183C7E1818187E- <1> 	db 0x00, 0x00, 0x18, 0x3c, 0x7e, 0x18, 0x18, 0x18, 0x7e, 0x3c, 0x18, 0x7e, 0x00, 0x00, 0x00, 0x00
   233 00000278 3C187E00000000      <1>
   234 0000027F 0000183C7E18181818- <1> 	db 0x00, 0x00, 0x18, 0x3c, 0x7e, 0x18, 0x18, 0x18, 0x18, 0x18, 0x18, 0x18, 0x00, 0x00, 0x00, 0x00
   235 00000288 18181800000000      <1>
   236 0000028F 000018181818181818- <1> 	db 0x00, 0x00, 0x18, 0x18, 0x18, 0x18, 0x18, 0x18, 0x18, 0x7e, 0x3c, 0x18, 0x00, 0x00, 0x00, 0x00
   237 00000298 7E3C1800000000      <1>
   238 0000029F 0000000000180CFE0C- <1> 	db 0x00, 0x00, 0x00, 0x00, 0x00, 0x18, 0x0c, 0xfe, 0x0c, 0x18, 0x00, 0x00, 0x00, 0x00, 0x00, 0x00
   239 000002A8 18000000000000      <1>
   240 000002AF 00000000003060FE60- <1> 	db 0x00, 0x00, 0x00, 0x00, 0x00, 0x30, 0x60, 0xfe, 0x60, 0x30, 0x00, 0x00, 0x00, 0x00, 0x00, 0x00
   241 000002B8 30000000000000      <1>
   242 000002BF 000000000000C0C0C0- <1> 	db 0x00, 0x00, 0x00, 0x00, 0x00, 0x00, 0xc0, 0xc0, 0xc0, 0xfe, 0x00, 0x00, 0x00, 0x00, 0x00, 0x00
   243 000002C8 FE000000000000      <1>
   244 000002CF 00000000002466FF66- <1> 	db 0x00, 0x00, 0x00, 0x00, 0x00, 0x24, 0x66, 0xff, 0x66, 0x24, 0x00, 0x00, 0x00, 0x00, 0x00, 0x00
   245 000002D8 24000000000000      <1>
   246 000002DF 000000001038387C7C- <1> 	db 0x00, 0x00, 0x00, 0x00, 0x10, 0x38, 0x38, 0x7c, 0x7c, 0xfe, 0xfe, 0x00, 0x00, 0x00, 0x00, 0x00
   247 000002E8 FEFE0000000000      <1>
   248 000002EF 00000000FEFE7C7C38- <1> 	db 0x00, 0x00, 0x00, 0x00, 0xfe, 0xfe, 0x7c, 0x7c, 0x38, 0x38, 0x10, 0x00, 0x00, 0x00, 0x00, 0x00
   249 000002F8 38100000000000      <1>
   250 000002FF 000000000000000000- <1> 	db 0x00, 0x00, 0x00, 0x00, 0x00, 0x00, 0x00, 0x00, 0x00, 0x00, 0x00, 0x00, 0x00, 0x00, 0x00, 0x00
   251 00000308 00000000000000      <1>
   252 0000030F 0000183C3C3C181818- <1> 	db 0x00, 0x00, 0x18, 0x3c, 0x3c, 0x3c, 0x18, 0x18, 0x18, 0x00, 0x18, 0x18, 0x00, 0x00, 0x00, 0x00
   253 00000318 00181800000000      <1>
   254 0000031F 006666662400000000- <1> 	db 0x00, 0x66, 0x66, 0x66, 0x24, 0x00, 0x00, 0x00, 0x00, 0x00, 0x00, 0x00, 0x00, 0x00, 0x00, 0x00
   255 00000328 00000000000000      <1>
   256 0000032F 0000006C6CFE6C6C6C- <1> 	db 0x00, 0x00, 0x00, 0x6c, 0x6c, 0xfe, 0x6c, 0x6c, 0x6c, 0xfe, 0x6c, 0x6c, 0x00, 0x00, 0x00, 0x00
   257 00000338 FE6C6C00000000      <1>
   258 0000033F 18187CC6C2C07C0606- <1> 	db 0x18, 0x18, 0x7c, 0xc6, 0xc2, 0xc0, 0x7c, 0x06, 0x06, 0x86, 0xc6, 0x7c, 0x18, 0x18, 0x00, 0x00
   259 00000348 86C67C18180000      <1>
   260 0000034F 00000000C2C60C1830- <1> 	db 0x00, 0x00, 0x00, 0x00, 0xc2, 0xc6, 0x0c, 0x18, 0x30, 0x60, 0xc6, 0x86, 0x00, 0x00, 0x00, 0x00
   261 00000358 60C68600000000      <1>
   262 0000035F 0000386C6C3876DCCC- <1> 	db 0x00, 0x00, 0x38, 0x6c, 0x6c, 0x38, 0x76, 0xdc, 0xcc, 0xcc, 0xcc, 0x76, 0x00, 0x00, 0x00, 0x00
   263 00000368 CCCC7600000000      <1>
   264 0000036F 003030306000000000- <1> 	db 0x00, 0x30, 0x30, 0x30, 0x60, 0x00, 0x00, 0x00, 0x00, 0x00, 0x00, 0x00, 0x00, 0x00, 0x00, 0x00
   265 00000378 00000000000000      <1>
   266 0000037F 00000C183030303030- <1> 	db 0x00, 0x00, 0x0c, 0x18, 0x30, 0x30, 0x30, 0x30, 0x30, 0x30, 0x18, 0x0c, 0x00, 0x00, 0x00, 0x00
   267 00000388 30180C00000000      <1>
   268 0000038F 000030180C0C0C0C0C- <1> 	db 0x00, 0x00, 0x30, 0x18, 0x0c, 0x0c, 0x0c, 0x0c, 0x0c, 0x0c, 0x18, 0x30, 0x00, 0x00, 0x00, 0x00
   269 00000398 0C183000000000      <1>
   270 0000039F 0000000000663CFF3C- <1> 	db 0x00, 0x00, 0x00, 0x00, 0x00, 0x66, 0x3c, 0xff, 0x3c, 0x66, 0x00, 0x00, 0x00, 0x00, 0x00, 0x00
   271 000003A8 66000000000000      <1>
   272 000003AF 000000000018187E18- <1> 	db 0x00, 0x00, 0x00, 0x00, 0x00, 0x18, 0x18, 0x7e, 0x18, 0x18, 0x00, 0x00, 0x00, 0x00, 0x00, 0x00
   273 000003B8 18000000000000      <1>
   274 000003BF 000000000000000000- <1> 	db 0x00, 0x00, 0x00, 0x00, 0x00, 0x00, 0x00, 0x00, 0x00, 0x18, 0x18, 0x18, 0x30, 0x00, 0x00, 0x00
   275 000003C8 18181830000000      <1>
   276 000003CF 00000000000000FE00- <1> 	db 0x00, 0x00, 0x00, 0x00, 0x00, 0x00, 0x00, 0xfe, 0x00, 0x00, 0x00, 0x00, 0x00, 0x00, 0x00, 0x00
   277 000003D8 00000000000000      <1>
   278 000003DF 000000000000000000- <1> 	db 0x00, 0x00, 0x00, 0x00, 0x00, 0x00, 0x00, 0x00, 0x00, 0x00, 0x18, 0x18, 0x00, 0x00, 0x00, 0x00
   279 000003E8 00181800000000      <1>
   280 000003EF 0000000002060C1830- <1> 	db 0x00, 0x00, 0x00, 0x00, 0x02, 0x06, 0x0c, 0x18, 0x30, 0x60, 0xc0, 0x80, 0x00, 0x00, 0x00, 0x00
   281 000003F8 60C08000000000      <1>
   282 000003FF 00003C66C3C3DBDBC3- <1> 	db 0x00, 0x00, 0x3c, 0x66, 0xc3, 0xc3, 0xdb, 0xdb, 0xc3, 0xc3, 0x66, 0x3c, 0x00, 0x00, 0x00, 0x00
   283 00000408 C3663C00000000      <1>
   284 0000040F 000018387818181818- <1> 	db 0x00, 0x00, 0x18, 0x38, 0x78, 0x18, 0x18, 0x18, 0x18, 0x18, 0x18, 0x7e, 0x00, 0x00, 0x00, 0x00
   285 00000418 18187E00000000      <1>
   286 0000041F 00007CC6060C183060- <1> 	db 0x00, 0x00, 0x7c, 0xc6, 0x06, 0x0c, 0x18, 0x30, 0x60, 0xc0, 0xc6, 0xfe, 0x00, 0x00, 0x00, 0x00
   287 00000428 C0C6FE00000000      <1>
   288 0000042F 00007CC606063C0606- <1> 	db 0x00, 0x00, 0x7c, 0xc6, 0x06, 0x06, 0x3c, 0x06, 0x06, 0x06, 0xc6, 0x7c, 0x00, 0x00, 0x00, 0x00
   289 00000438 06C67C00000000      <1>
   290 0000043F 00000C1C3C6CCCFE0C- <1> 	db 0x00, 0x00, 0x0c, 0x1c, 0x3c, 0x6c, 0xcc, 0xfe, 0x0c, 0x0c, 0x0c, 0x1e, 0x00, 0x00, 0x00, 0x00
   291 00000448 0C0C1E00000000      <1>
   292 0000044F 0000FEC0C0C0FC0606- <1> 	db 0x00, 0x00, 0xfe, 0xc0, 0xc0, 0xc0, 0xfc, 0x06, 0x06, 0x06, 0xc6, 0x7c, 0x00, 0x00, 0x00, 0x00
   293 00000458 06C67C00000000      <1>
   294 0000045F 00003860C0C0FCC6C6- <1> 	db 0x00, 0x00, 0x38, 0x60, 0xc0, 0xc0, 0xfc, 0xc6, 0xc6, 0xc6, 0xc6, 0x7c, 0x00, 0x00, 0x00, 0x00
   295 00000468 C6C67C00000000      <1>
   296 0000046F 0000FEC606060C1830- <1> 	db 0x00, 0x00, 0xfe, 0xc6, 0x06, 0x06, 0x0c, 0x18, 0x30, 0x30, 0x30, 0x30, 0x00, 0x00, 0x00, 0x00
   297 00000478 30303000000000      <1>
   298 0000047F 00007CC6C6C67CC6C6- <1> 	db 0x00, 0x00, 0x7c, 0xc6, 0xc6, 0xc6, 0x7c, 0xc6, 0xc6, 0xc6, 0xc6, 0x7c, 0x00, 0x00, 0x00, 0x00
   299 00000488 C6C67C00000000      <1>
   300 0000048F 00007CC6C6C67E0606- <1> 	db 0x00, 0x00, 0x7c, 0xc6, 0xc6, 0xc6, 0x7e, 0x06, 0x06, 0x06, 0x0c, 0x78, 0x00, 0x00, 0x00, 0x00
   301 00000498 060C7800000000      <1>
   302 0000049F 000000001818000000- <1> 	db 0x00, 0x00, 0x00, 0x00, 0x18, 0x18, 0x00, 0x00, 0x00, 0x18, 0x18, 0x00, 0x00, 0x00, 0x00, 0x00
   303 000004A8 18180000000000      <1>
   304 000004AF 000000001818000000- <1> 	db 0x00, 0x00, 0x00, 0x00, 0x18, 0x18, 0x00, 0x00, 0x00, 0x18, 0x18, 0x30, 0x00, 0x00, 0x00, 0x00
   305 000004B8 18183000000000      <1>
   306 000004BF 000000060C18306030- <1> 	db 0x00, 0x00, 0x00, 0x06, 0x0c, 0x18, 0x30, 0x60, 0x30, 0x18, 0x0c, 0x06, 0x00, 0x00, 0x00, 0x00
   307 000004C8 180C0600000000      <1>
   308 000004CF 00000000007E00007E- <1> 	db 0x00, 0x00, 0x00, 0x00, 0x00, 0x7e, 0x00, 0x00, 0x7e, 0x00, 0x00, 0x00, 0x00, 0x00, 0x00, 0x00
   309 000004D8 00000000000000      <1>
   310 000004DF 0000006030180C060C- <1> 	db 0x00, 0x00, 0x00, 0x60, 0x30, 0x18, 0x0c, 0x06, 0x0c, 0x18, 0x30, 0x60, 0x00, 0x00, 0x00, 0x00
   311 000004E8 18306000000000      <1>
   312 000004EF 00007CC6C60C181818- <1> 	db 0x00, 0x00, 0x7c, 0xc6, 0xc6, 0x0c, 0x18, 0x18, 0x18, 0x00, 0x18, 0x18, 0x00, 0x00, 0x00, 0x00
   313 000004F8 00181800000000      <1>
   314 000004FF 0000007CC6C6DEDEDE- <1> 	db 0x00, 0x00, 0x00, 0x7c, 0xc6, 0xc6, 0xde, 0xde, 0xde, 0xdc, 0xc0, 0x7c, 0x00, 0x00, 0x00, 0x00
   315 00000508 DCC07C00000000      <1>
   316 0000050F 000010386CC6C6FEC6- <1> 	db 0x00, 0x00, 0x10, 0x38, 0x6c, 0xc6, 0xc6, 0xfe, 0xc6, 0xc6, 0xc6, 0xc6, 0x00, 0x00, 0x00, 0x00
   317 00000518 C6C6C600000000      <1>
   318 0000051F 0000FC6666667C6666- <1> 	db 0x00, 0x00, 0xfc, 0x66, 0x66, 0x66, 0x7c, 0x66, 0x66, 0x66, 0x66, 0xfc, 0x00, 0x00, 0x00, 0x00
   319 00000528 6666FC00000000      <1>
   320 0000052F 00003C66C2C0C0C0C0- <1> 	db 0x00, 0x00, 0x3c, 0x66, 0xc2, 0xc0, 0xc0, 0xc0, 0xc0, 0xc2, 0x66, 0x3c, 0x00, 0x00, 0x00, 0x00
   321 00000538 C2663C00000000      <1>
   322 0000053F 0000F86C6666666666- <1> 	db 0x00, 0x00, 0xf8, 0x6c, 0x66, 0x66, 0x66, 0x66, 0x66, 0x66, 0x6c, 0xf8, 0x00, 0x00, 0x00, 0x00
   323 00000548 666CF800000000      <1>
   324 0000054F 0000FE666268786860- <1> 	db 0x00, 0x00, 0xfe, 0x66, 0x62, 0x68, 0x78, 0x68, 0x60, 0x62, 0x66, 0xfe, 0x00, 0x00, 0x00, 0x00
   325 00000558 6266FE00000000      <1>
   326 0000055F 0000FE666268786860- <1> 	db 0x00, 0x00, 0xfe, 0x66, 0x62, 0x68, 0x78, 0x68, 0x60, 0x60, 0x60, 0xf0, 0x00, 0x00, 0x00, 0x00
   327 00000568 6060F000000000      <1>
   328 0000056F 00003C66C2C0C0DEC6- <1> 	db 0x00, 0x00, 0x3c, 0x66, 0xc2, 0xc0, 0xc0, 0xde, 0xc6, 0xc6, 0x66, 0x3a, 0x00, 0x00, 0x00, 0x00
   329 00000578 C6663A00000000      <1>
   330 0000057F 0000C6C6C6C6FEC6C6- <1> 	db 0x00, 0x00, 0xc6, 0xc6, 0xc6, 0xc6, 0xfe, 0xc6, 0xc6, 0xc6, 0xc6, 0xc6, 0x00, 0x00, 0x00, 0x00
   331 00000588 C6C6C600000000      <1>
   332 0000058F 00003C181818181818- <1> 	db 0x00, 0x00, 0x3c, 0x18, 0x18, 0x18, 0x18, 0x18, 0x18, 0x18, 0x18, 0x3c, 0x00, 0x00, 0x00, 0x00
   333 00000598 18183C00000000      <1>
   334 0000059F 00001E0C0C0C0C0CCC- <1> 	db 0x00, 0x00, 0x1e, 0x0c, 0x0c, 0x0c, 0x0c, 0x0c, 0xcc, 0xcc, 0xcc, 0x78, 0x00, 0x00, 0x00, 0x00
   335 000005A8 CCCC7800000000      <1>
   336 000005AF 0000E666666C78786C- <1> 	db 0x00, 0x00, 0xe6, 0x66, 0x66, 0x6c, 0x78, 0x78, 0x6c, 0x66, 0x66, 0xe6, 0x00, 0x00, 0x00, 0x00
   337 000005B8 6666E600000000      <1>
   338 000005BF 0000F0606060606060- <1> 	db 0x00, 0x00, 0xf0, 0x60, 0x60, 0x60, 0x60, 0x60, 0x60, 0x62, 0x66, 0xfe, 0x00, 0x00, 0x00, 0x00
   339 000005C8 6266FE00000000      <1>
   340 000005CF 0000C3E7FFFFDBC3C3- <1> 	db 0x00, 0x00, 0xc3, 0xe7, 0xff, 0xff, 0xdb, 0xc3, 0xc3, 0xc3, 0xc3, 0xc3, 0x00, 0x00, 0x00, 0x00
   341 000005D8 C3C3C300000000      <1>
   342 000005DF 0000C6E6F6FEDECEC6- <1> 	db 0x00, 0x00, 0xc6, 0xe6, 0xf6, 0xfe, 0xde, 0xce, 0xc6, 0xc6, 0xc6, 0xc6, 0x00, 0x00, 0x00, 0x00
   343 000005E8 C6C6C600000000      <1>
   344 000005EF 00007CC6C6C6C6C6C6- <1> 	db 0x00, 0x00, 0x7c, 0xc6, 0xc6, 0xc6, 0xc6, 0xc6, 0xc6, 0xc6, 0xc6, 0x7c, 0x00, 0x00, 0x00, 0x00
   345 000005F8 C6C67C00000000      <1>
   346 000005FF 0000FC6666667C6060- <1> 	db 0x00, 0x00, 0xfc, 0x66, 0x66, 0x66, 0x7c, 0x60, 0x60, 0x60, 0x60, 0xf0, 0x00, 0x00, 0x00, 0x00
   347 00000608 6060F000000000      <1>
   348 0000060F 00007CC6C6C6C6C6C6- <1> 	db 0x00, 0x00, 0x7c, 0xc6, 0xc6, 0xc6, 0xc6, 0xc6, 0xc6, 0xd6, 0xde, 0x7c, 0x0c, 0x0e, 0x00, 0x00
   349 00000618 D6DE7C0C0E0000      <1>
   350 0000061F 0000FC6666667C6C66- <1> 	db 0x00, 0x00, 0xfc, 0x66, 0x66, 0x66, 0x7c, 0x6c, 0x66, 0x66, 0x66, 0xe6, 0x00, 0x00, 0x00, 0x00
   351 00000628 6666E600000000      <1>
   352 0000062F 00007CC6C660380C06- <1> 	db 0x00, 0x00, 0x7c, 0xc6, 0xc6, 0x60, 0x38, 0x0c, 0x06, 0xc6, 0xc6, 0x7c, 0x00, 0x00, 0x00, 0x00
   353 00000638 C6C67C00000000      <1>
   354 0000063F 0000FFDB9918181818- <1> 	db 0x00, 0x00, 0xff, 0xdb, 0x99, 0x18, 0x18, 0x18, 0x18, 0x18, 0x18, 0x3c, 0x00, 0x00, 0x00, 0x00
   355 00000648 18183C00000000      <1>
   356 0000064F 0000C6C6C6C6C6C6C6- <1> 	db 0x00, 0x00, 0xc6, 0xc6, 0xc6, 0xc6, 0xc6, 0xc6, 0xc6, 0xc6, 0xc6, 0x7c, 0x00, 0x00, 0x00, 0x00
   357 00000658 C6C67C00000000      <1>
   358 0000065F 0000C3C3C3C3C3C3C3- <1> 	db 0x00, 0x00, 0xc3, 0xc3, 0xc3, 0xc3, 0xc3, 0xc3, 0xc3, 0x66, 0x3c, 0x18, 0x00, 0x00, 0x00, 0x00
   359 00000668 663C1800000000      <1>
   360 0000066F 0000C3C3C3C3C3DBDB- <1> 	db 0x00, 0x00, 0xc3, 0xc3, 0xc3, 0xc3, 0xc3, 0xdb, 0xdb, 0xff, 0x66, 0x66, 0x00, 0x00, 0x00, 0x00
   361 00000678 FF666600000000      <1>
   362 0000067F 0000C3C3663C18183C- <1> 	db 0x00, 0x00, 0xc3, 0xc3, 0x66, 0x3c, 0x18, 0x18, 0x3c, 0x66, 0xc3, 0xc3, 0x00, 0x00, 0x00, 0x00
   363 00000688 66C3C300000000      <1>
   364 0000068F 0000C3C3C3663C1818- <1> 	db 0x00, 0x00, 0xc3, 0xc3, 0xc3, 0x66, 0x3c, 0x18, 0x18, 0x18, 0x18, 0x3c, 0x00, 0x00, 0x00, 0x00
   365 00000698 18183C00000000      <1>
   366 0000069F 0000FFC3860C183060- <1> 	db 0x00, 0x00, 0xff, 0xc3, 0x86, 0x0c, 0x18, 0x30, 0x60, 0xc1, 0xc3, 0xff, 0x00, 0x00, 0x00, 0x00
   367 000006A8 C1C3FF00000000      <1>
   368 000006AF 00003C303030303030- <1> 	db 0x00, 0x00, 0x3c, 0x30, 0x30, 0x30, 0x30, 0x30, 0x30, 0x30, 0x30, 0x3c, 0x00, 0x00, 0x00, 0x00
   369 000006B8 30303C00000000      <1>
   370 000006BF 00000080C0E070381C- <1> 	db 0x00, 0x00, 0x00, 0x80, 0xc0, 0xe0, 0x70, 0x38, 0x1c, 0x0e, 0x06, 0x02, 0x00, 0x00, 0x00, 0x00
   371 000006C8 0E060200000000      <1>
   372 000006CF 00003C0C0C0C0C0C0C- <1> 	db 0x00, 0x00, 0x3c, 0x0c, 0x0c, 0x0c, 0x0c, 0x0c, 0x0c, 0x0c, 0x0c, 0x3c, 0x00, 0x00, 0x00, 0x00
   373 000006D8 0C0C3C00000000      <1>
   374 000006DF 10386CC60000000000- <1> 	db 0x10, 0x38, 0x6c, 0xc6, 0x00, 0x00, 0x00, 0x00, 0x00, 0x00, 0x00, 0x00, 0x00, 0x00, 0x00, 0x00
   375 000006E8 00000000000000      <1>
   376 000006EF 000000000000000000- <1> 	db 0x00, 0x00, 0x00, 0x00, 0x00, 0x00, 0x00, 0x00, 0x00, 0x00, 0x00, 0x00, 0x00, 0xff, 0x00, 0x00
   377 000006F8 00000000FF0000      <1>
   378 000006FF 303018000000000000- <1> 	db 0x30, 0x30, 0x18, 0x00, 0x00, 0x00, 0x00, 0x00, 0x00, 0x00, 0x00, 0x00, 0x00, 0x00, 0x00, 0x00
   379 00000708 00000000000000      <1>
   380 0000070F 0000000000780C7CCC- <1> 	db 0x00, 0x00, 0x00, 0x00, 0x00, 0x78, 0x0c, 0x7c, 0xcc, 0xcc, 0xcc, 0x76, 0x00, 0x00, 0x00, 0x00
   381 00000718 CCCC7600000000      <1>
   382 0000071F 0000E06060786C6666- <1> 	db 0x00, 0x00, 0xe0, 0x60, 0x60, 0x78, 0x6c, 0x66, 0x66, 0x66, 0x66, 0x7c, 0x00, 0x00, 0x00, 0x00
   383 00000728 66667C00000000      <1>
   384 0000072F 00000000007CC6C0C0- <1> 	db 0x00, 0x00, 0x00, 0x00, 0x00, 0x7c, 0xc6, 0xc0, 0xc0, 0xc0, 0xc6, 0x7c, 0x00, 0x00, 0x00, 0x00
   385 00000738 C0C67C00000000      <1>
   386 0000073F 00001C0C0C3C6CCCCC- <1> 	db 0x00, 0x00, 0x1c, 0x0c, 0x0c, 0x3c, 0x6c, 0xcc, 0xcc, 0xcc, 0xcc, 0x76, 0x00, 0x00, 0x00, 0x00
   387 00000748 CCCC7600000000      <1>
   388 0000074F 00000000007CC6FEC0- <1> 	db 0x00, 0x00, 0x00, 0x00, 0x00, 0x7c, 0xc6, 0xfe, 0xc0, 0xc0, 0xc6, 0x7c, 0x00, 0x00, 0x00, 0x00
   389 00000758 C0C67C00000000      <1>
   390 0000075F 0000386C6460F06060- <1> 	db 0x00, 0x00, 0x38, 0x6c, 0x64, 0x60, 0xf0, 0x60, 0x60, 0x60, 0x60, 0xf0, 0x00, 0x00, 0x00, 0x00
   391 00000768 6060F000000000      <1>
   392 0000076F 000000000076CCCCCC- <1> 	db 0x00, 0x00, 0x00, 0x00, 0x00, 0x76, 0xcc, 0xcc, 0xcc, 0xcc, 0xcc, 0x7c, 0x0c, 0xcc, 0x78, 0x00
   393 00000778 CCCC7C0CCC7800      <1>
   394 0000077F 0000E060606C766666- <1> 	db 0x00, 0x00, 0xe0, 0x60, 0x60, 0x6c, 0x76, 0x66, 0x66, 0x66, 0x66, 0xe6, 0x00, 0x00, 0x00, 0x00
   395 00000788 6666E600000000      <1>
   396 0000078F 000018180038181818- <1> 	db 0x00, 0x00, 0x18, 0x18, 0x00, 0x38, 0x18, 0x18, 0x18, 0x18, 0x18, 0x3c, 0x00, 0x00, 0x00, 0x00
   397 00000798 18183C00000000      <1>
   398 0000079F 00000606000E060606- <1> 	db 0x00, 0x00, 0x06, 0x06, 0x00, 0x0e, 0x06, 0x06, 0x06, 0x06, 0x06, 0x06, 0x66, 0x66, 0x3c, 0x00
   399 000007A8 06060666663C00      <1>
   400 000007AF 0000E06060666C7878- <1> 	db 0x00, 0x00, 0xe0, 0x60, 0x60, 0x66, 0x6c, 0x78, 0x78, 0x6c, 0x66, 0xe6, 0x00, 0x00, 0x00, 0x00
   401 000007B8 6C66E600000000      <1>
   402 000007BF 000038181818181818- <1> 	db 0x00, 0x00, 0x38, 0x18, 0x18, 0x18, 0x18, 0x18, 0x18, 0x18, 0x18, 0x3c, 0x00, 0x00, 0x00, 0x00
   403 000007C8 18183C00000000      <1>
   404 000007CF 0000000000E6FFDBDB- <1> 	db 0x00, 0x00, 0x00, 0x00, 0x00, 0xe6, 0xff, 0xdb, 0xdb, 0xdb, 0xdb, 0xdb, 0x00, 0x00, 0x00, 0x00
   405 000007D8 DBDBDB00000000      <1>
   406 000007DF 0000000000DC666666- <1> 	db 0x00, 0x00, 0x00, 0x00, 0x00, 0xdc, 0x66, 0x66, 0x66, 0x66, 0x66, 0x66, 0x00, 0x00, 0x00, 0x00
   407 000007E8 66666600000000      <1>
   408 000007EF 00000000007CC6C6C6- <1> 	db 0x00, 0x00, 0x00, 0x00, 0x00, 0x7c, 0xc6, 0xc6, 0xc6, 0xc6, 0xc6, 0x7c, 0x00, 0x00, 0x00, 0x00
   409 000007F8 C6C67C00000000      <1>
   410 000007FF 0000000000DC666666- <1> 	db 0x00, 0x00, 0x00, 0x00, 0x00, 0xdc, 0x66, 0x66, 0x66, 0x66, 0x66, 0x7c, 0x60, 0x60, 0xf0, 0x00
   411 00000808 66667C6060F000      <1>
   412 0000080F 000000000076CCCCCC- <1> 	db 0x00, 0x00, 0x00, 0x00, 0x00, 0x76, 0xcc, 0xcc, 0xcc, 0xcc, 0xcc, 0x7c, 0x0c, 0x0c, 0x1e, 0x00
   413 00000818 CCCC7C0C0C1E00      <1>
   414 0000081F 0000000000DC766660- <1> 	db 0x00, 0x00, 0x00, 0x00, 0x00, 0xdc, 0x76, 0x66, 0x60, 0x60, 0x60, 0xf0, 0x00, 0x00, 0x00, 0x00
   415 00000828 6060F000000000      <1>
   416 0000082F 00000000007CC66038- <1> 	db 0x00, 0x00, 0x00, 0x00, 0x00, 0x7c, 0xc6, 0x60, 0x38, 0x0c, 0xc6, 0x7c, 0x00, 0x00, 0x00, 0x00
   417 00000838 0CC67C00000000      <1>
   418 0000083F 0000103030FC303030- <1> 	db 0x00, 0x00, 0x10, 0x30, 0x30, 0xfc, 0x30, 0x30, 0x30, 0x30, 0x36, 0x1c, 0x00, 0x00, 0x00, 0x00
   419 00000848 30361C00000000      <1>
   420 0000084F 0000000000CCCCCCCC- <1> 	db 0x00, 0x00, 0x00, 0x00, 0x00, 0xcc, 0xcc, 0xcc, 0xcc, 0xcc, 0xcc, 0x76, 0x00, 0x00, 0x00, 0x00
   421 00000858 CCCC7600000000      <1>
   422 0000085F 0000000000C3C3C3C3- <1> 	db 0x00, 0x00, 0x00, 0x00, 0x00, 0xc3, 0xc3, 0xc3, 0xc3, 0x66, 0x3c, 0x18, 0x00, 0x00, 0x00, 0x00
   423 00000868 663C1800000000      <1>
   424 0000086F 0000000000C3C3C3DB- <1> 	db 0x00, 0x00, 0x00, 0x00, 0x00, 0xc3, 0xc3, 0xc3, 0xdb, 0xdb, 0xff, 0x66, 0x00, 0x00, 0x00, 0x00
   425 00000878 DBFF6600000000      <1>
   426 0000087F 0000000000C3663C18- <1> 	db 0x00, 0x00, 0x00, 0x00, 0x00, 0xc3, 0x66, 0x3c, 0x18, 0x3c, 0x66, 0xc3, 0x00, 0x00, 0x00, 0x00
   427 00000888 3C66C300000000      <1>
   428 0000088F 0000000000C6C6C6C6- <1> 	db 0x00, 0x00, 0x00, 0x00, 0x00, 0xc6, 0xc6, 0xc6, 0xc6, 0xc6, 0xc6, 0x7e, 0x06, 0x0c, 0xf8, 0x00
   429 00000898 C6C67E060CF800      <1>
   430 0000089F 0000000000FECC1830- <1> 	db 0x00, 0x00, 0x00, 0x00, 0x00, 0xfe, 0xcc, 0x18, 0x30, 0x60, 0xc6, 0xfe, 0x00, 0x00, 0x00, 0x00
   431 000008A8 60C6FE00000000      <1>
   432 000008AF 00000E181818701818- <1> 	db 0x00, 0x00, 0x0e, 0x18, 0x18, 0x18, 0x70, 0x18, 0x18, 0x18, 0x18, 0x0e, 0x00, 0x00, 0x00, 0x00
   433 000008B8 18180E00000000      <1>
   434 000008BF 000018181818001818- <1> 	db 0x00, 0x00, 0x18, 0x18, 0x18, 0x18, 0x00, 0x18, 0x18, 0x18, 0x18, 0x18, 0x00, 0x00, 0x00, 0x00
   435 000008C8 18181800000000      <1>
   436 000008CF 0000701818180E1818- <1> 	db 0x00, 0x00, 0x70, 0x18, 0x18, 0x18, 0x0e, 0x18, 0x18, 0x18, 0x18, 0x70, 0x00, 0x00, 0x00, 0x00
   437 000008D8 18187000000000      <1>
   438 000008DF 000076DC0000000000- <1> 	db 0x00, 0x00, 0x76, 0xdc, 0x00, 0x00, 0x00, 0x00, 0x00, 0x00, 0x00, 0x00, 0x00, 0x00, 0x00, 0x00
   439 000008E8 00000000000000      <1>
   440 000008EF 0000000010386CC6C6- <1> 	db 0x00, 0x00, 0x00, 0x00, 0x10, 0x38, 0x6c, 0xc6, 0xc6, 0xc6, 0xfe, 0x00, 0x00, 0x00, 0x00, 0x00
   441 000008F8 C6FE0000000000      <1>
   442 000008FF 00003C66C2C0C0C0C2- <1> 	db 0x00, 0x00, 0x3c, 0x66, 0xc2, 0xc0, 0xc0, 0xc0, 0xc2, 0x66, 0x3c, 0x0c, 0x06, 0x7c, 0x00, 0x00
   443 00000908 663C0C067C0000      <1>
   444 0000090F 0000CC0000CCCCCCCC- <1> 	db 0x00, 0x00, 0xcc, 0x00, 0x00, 0xcc, 0xcc, 0xcc, 0xcc, 0xcc, 0xcc, 0x76, 0x00, 0x00, 0x00, 0x00
   445 00000918 CCCC7600000000      <1>
   446 0000091F 000C1830007CC6FEC0- <1> 	db 0x00, 0x0c, 0x18, 0x30, 0x00, 0x7c, 0xc6, 0xfe, 0xc0, 0xc0, 0xc6, 0x7c, 0x00, 0x00, 0x00, 0x00
   447 00000928 C0C67C00000000      <1>
   448 0000092F 0010386C00780C7CCC- <1> 	db 0x00, 0x10, 0x38, 0x6c, 0x00, 0x78, 0x0c, 0x7c, 0xcc, 0xcc, 0xcc, 0x76, 0x00, 0x00, 0x00, 0x00
   449 00000938 CCCC7600000000      <1>
   450 0000093F 0000CC0000780C7CCC- <1> 	db 0x00, 0x00, 0xcc, 0x00, 0x00, 0x78, 0x0c, 0x7c, 0xcc, 0xcc, 0xcc, 0x76, 0x00, 0x00, 0x00, 0x00
   451 00000948 CCCC7600000000      <1>
   452 0000094F 0060301800780C7CCC- <1> 	db 0x00, 0x60, 0x30, 0x18, 0x00, 0x78, 0x0c, 0x7c, 0xcc, 0xcc, 0xcc, 0x76, 0x00, 0x00, 0x00, 0x00
   453 00000958 CCCC7600000000      <1>
   454 0000095F 00386C3800780C7CCC- <1> 	db 0x00, 0x38, 0x6c, 0x38, 0x00, 0x78, 0x0c, 0x7c, 0xcc, 0xcc, 0xcc, 0x76, 0x00, 0x00, 0x00, 0x00
   455 00000968 CCCC7600000000      <1>
   456 0000096F 000000003C66606066- <1> 	db 0x00, 0x00, 0x00, 0x00, 0x3c, 0x66, 0x60, 0x60, 0x66, 0x3c, 0x0c, 0x06, 0x3c, 0x00, 0x00, 0x00
   457 00000978 3C0C063C000000      <1>
   458 0000097F 0010386C007CC6FEC0- <1> 	db 0x00, 0x10, 0x38, 0x6c, 0x00, 0x7c, 0xc6, 0xfe, 0xc0, 0xc0, 0xc6, 0x7c, 0x00, 0x00, 0x00, 0x00
   459 00000988 C0C67C00000000      <1>
   460 0000098F 0000C600007CC6FEC0- <1> 	db 0x00, 0x00, 0xc6, 0x00, 0x00, 0x7c, 0xc6, 0xfe, 0xc0, 0xc0, 0xc6, 0x7c, 0x00, 0x00, 0x00, 0x00
   461 00000998 C0C67C00000000      <1>
   462 0000099F 00603018007CC6FEC0- <1> 	db 0x00, 0x60, 0x30, 0x18, 0x00, 0x7c, 0xc6, 0xfe, 0xc0, 0xc0, 0xc6, 0x7c, 0x00, 0x00, 0x00, 0x00
   463 000009A8 C0C67C00000000      <1>
   464 000009AF 000066000038181818- <1> 	db 0x00, 0x00, 0x66, 0x00, 0x00, 0x38, 0x18, 0x18, 0x18, 0x18, 0x18, 0x3c, 0x00, 0x00, 0x00, 0x00
   465 000009B8 18183C00000000      <1>
   466 000009BF 00183C660038181818- <1> 	db 0x00, 0x18, 0x3c, 0x66, 0x00, 0x38, 0x18, 0x18, 0x18, 0x18, 0x18, 0x3c, 0x00, 0x00, 0x00, 0x00
   467 000009C8 18183C00000000      <1>
   468 000009CF 006030180038181818- <1> 	db 0x00, 0x60, 0x30, 0x18, 0x00, 0x38, 0x18, 0x18, 0x18, 0x18, 0x18, 0x3c, 0x00, 0x00, 0x00, 0x00
   469 000009D8 18183C00000000      <1>
   470 000009DF 00C60010386CC6C6FE- <1> 	db 0x00, 0xc6, 0x00, 0x10, 0x38, 0x6c, 0xc6, 0xc6, 0xfe, 0xc6, 0xc6, 0xc6, 0x00, 0x00, 0x00, 0x00
   471 000009E8 C6C6C600000000      <1>
   472 000009EF 386C3800386CC6C6FE- <1> 	db 0x38, 0x6c, 0x38, 0x00, 0x38, 0x6c, 0xc6, 0xc6, 0xfe, 0xc6, 0xc6, 0xc6, 0x00, 0x00, 0x00, 0x00
   473 000009F8 C6C6C600000000      <1>
   474 000009FF 18306000FE66607C60- <1> 	db 0x18, 0x30, 0x60, 0x00, 0xfe, 0x66, 0x60, 0x7c, 0x60, 0x60, 0x66, 0xfe, 0x00, 0x00, 0x00, 0x00
   475 00000A08 6066FE00000000      <1>
   476 00000A0F 00000000006E3B1B7E- <1> 	db 0x00, 0x00, 0x00, 0x00, 0x00, 0x6e, 0x3b, 0x1b, 0x7e, 0xd8, 0xdc, 0x77, 0x00, 0x00, 0x00, 0x00
   477 00000A18 D8DC7700000000      <1>
   478 00000A1F 00003E6CCCCCFECCCC- <1> 	db 0x00, 0x00, 0x3e, 0x6c, 0xcc, 0xcc, 0xfe, 0xcc, 0xcc, 0xcc, 0xcc, 0xce, 0x00, 0x00, 0x00, 0x00
   479 00000A28 CCCCCE00000000      <1>
   480 00000A2F 0010386C007CC6C6C6- <1> 	db 0x00, 0x10, 0x38, 0x6c, 0x00, 0x7c, 0xc6, 0xc6, 0xc6, 0xc6, 0xc6, 0x7c, 0x00, 0x00, 0x00, 0x00
   481 00000A38 C6C67C00000000      <1>
   482 00000A3F 0000C600007CC6C6C6- <1> 	db 0x00, 0x00, 0xc6, 0x00, 0x00, 0x7c, 0xc6, 0xc6, 0xc6, 0xc6, 0xc6, 0x7c, 0x00, 0x00, 0x00, 0x00
   483 00000A48 C6C67C00000000      <1>
   484 00000A4F 00603018007CC6C6C6- <1> 	db 0x00, 0x60, 0x30, 0x18, 0x00, 0x7c, 0xc6, 0xc6, 0xc6, 0xc6, 0xc6, 0x7c, 0x00, 0x00, 0x00, 0x00
   485 00000A58 C6C67C00000000      <1>
   486 00000A5F 003078CC00CCCCCCCC- <1> 	db 0x00, 0x30, 0x78, 0xcc, 0x00, 0xcc, 0xcc, 0xcc, 0xcc, 0xcc, 0xcc, 0x76, 0x00, 0x00, 0x00, 0x00
   487 00000A68 CCCC7600000000      <1>
   488 00000A6F 0060301800CCCCCCCC- <1> 	db 0x00, 0x60, 0x30, 0x18, 0x00, 0xcc, 0xcc, 0xcc, 0xcc, 0xcc, 0xcc, 0x76, 0x00, 0x00, 0x00, 0x00
   489 00000A78 CCCC7600000000      <1>
   490 00000A7F 0000C60000C6C6C6C6- <1> 	db 0x00, 0x00, 0xc6, 0x00, 0x00, 0xc6, 0xc6, 0xc6, 0xc6, 0xc6, 0xc6, 0x7e, 0x06, 0x0c, 0x78, 0x00
   491 00000A88 C6C67E060C7800      <1>
   492 00000A8F 00C6007CC6C6C6C6C6- <1> 	db 0x00, 0xc6, 0x00, 0x7c, 0xc6, 0xc6, 0xc6, 0xc6, 0xc6, 0xc6, 0xc6, 0x7c, 0x00, 0x00, 0x00, 0x00
   493 00000A98 C6C67C00000000      <1>
   494 00000A9F 00C600C6C6C6C6C6C6- <1> 	db 0x00, 0xc6, 0x00, 0xc6, 0xc6, 0xc6, 0xc6, 0xc6, 0xc6, 0xc6, 0xc6, 0x7c, 0x00, 0x00, 0x00, 0x00
   495 00000AA8 C6C67C00000000      <1>
   496 00000AAF 0018187EC3C0C0C0C3- <1> 	db 0x00, 0x18, 0x18, 0x7e, 0xc3, 0xc0, 0xc0, 0xc0, 0xc3, 0x7e, 0x18, 0x18, 0x00, 0x00, 0x00, 0x00
   497 00000AB8 7E181800000000      <1>
   498 00000ABF 00386C6460F0606060- <1> 	db 0x00, 0x38, 0x6c, 0x64, 0x60, 0xf0, 0x60, 0x60, 0x60, 0x60, 0xe6, 0xfc, 0x00, 0x00, 0x00, 0x00
   499 00000AC8 60E6FC00000000      <1>
   500 00000ACF 0000C3663C18FF18FF- <1> 	db 0x00, 0x00, 0xc3, 0x66, 0x3c, 0x18, 0xff, 0x18, 0xff, 0x18, 0x18, 0x18, 0x00, 0x00, 0x00, 0x00
   501 00000AD8 18181800000000      <1>
   502 00000ADF 00FC66667C62666F66- <1> 	db 0x00, 0xfc, 0x66, 0x66, 0x7c, 0x62, 0x66, 0x6f, 0x66, 0x66, 0x66, 0xf3, 0x00, 0x00, 0x00, 0x00
   503 00000AE8 6666F300000000      <1>
   504 00000AEF 000E1B1818187E1818- <1> 	db 0x00, 0x0e, 0x1b, 0x18, 0x18, 0x18, 0x7e, 0x18, 0x18, 0x18, 0x18, 0x18, 0xd8, 0x70, 0x00, 0x00
   505 00000AF8 181818D8700000      <1>
   506 00000AFF 0018306000780C7CCC- <1> 	db 0x00, 0x18, 0x30, 0x60, 0x00, 0x78, 0x0c, 0x7c, 0xcc, 0xcc, 0xcc, 0x76, 0x00, 0x00, 0x00, 0x00
   507 00000B08 CCCC7600000000      <1>
   508 00000B0F 000C18300038181818- <1> 	db 0x00, 0x0c, 0x18, 0x30, 0x00, 0x38, 0x18, 0x18, 0x18, 0x18, 0x18, 0x3c, 0x00, 0x00, 0x00, 0x00
   509 00000B18 18183C00000000      <1>
   510 00000B1F 00183060007CC6C6C6- <1> 	db 0x00, 0x18, 0x30, 0x60, 0x00, 0x7c, 0xc6, 0xc6, 0xc6, 0xc6, 0xc6, 0x7c, 0x00, 0x00, 0x00, 0x00
   511 00000B28 C6C67C00000000      <1>
   512 00000B2F 0018306000CCCCCCCC- <1> 	db 0x00, 0x18, 0x30, 0x60, 0x00, 0xcc, 0xcc, 0xcc, 0xcc, 0xcc, 0xcc, 0x76, 0x00, 0x00, 0x00, 0x00
   513 00000B38 CCCC7600000000      <1>
   514 00000B3F 000076DC00DC666666- <1> 	db 0x00, 0x00, 0x76, 0xdc, 0x00, 0xdc, 0x66, 0x66, 0x66, 0x66, 0x66, 0x66, 0x00, 0x00, 0x00, 0x00
   515 00000B48 66666600000000      <1>
   516 00000B4F 76DC00C6E6F6FEDECE- <1> 	db 0x76, 0xdc, 0x00, 0xc6, 0xe6, 0xf6, 0xfe, 0xde, 0xce, 0xc6, 0xc6, 0xc6, 0x00, 0x00, 0x00, 0x00
   517 00000B58 C6C6C600000000      <1>
   518 00000B5F 003C6C6C3E007E0000- <1> 	db 0x00, 0x3c, 0x6c, 0x6c, 0x3e, 0x00, 0x7e, 0x00, 0x00, 0x00, 0x00, 0x00, 0x00, 0x00, 0x00, 0x00
   519 00000B68 00000000000000      <1>
   520 00000B6F 00386C6C38007C0000- <1> 	db 0x00, 0x38, 0x6c, 0x6c, 0x38, 0x00, 0x7c, 0x00, 0x00, 0x00, 0x00, 0x00, 0x00, 0x00, 0x00, 0x00
   521 00000B78 00000000000000      <1>
   522 00000B7F 0000303000303060C0- <1> 	db 0x00, 0x00, 0x30, 0x30, 0x00, 0x30, 0x30, 0x60, 0xc0, 0xc6, 0xc6, 0x7c, 0x00, 0x00, 0x00, 0x00
   523 00000B88 C6C67C00000000      <1>
   524 00000B8F 000000000000FEC0C0- <1> 	db 0x00, 0x00, 0x00, 0x00, 0x00, 0x00, 0xfe, 0xc0, 0xc0, 0xc0, 0xc0, 0x00, 0x00, 0x00, 0x00, 0x00
   525 00000B98 C0C00000000000      <1>
   526 00000B9F 000000000000FE0606- <1> 	db 0x00, 0x00, 0x00, 0x00, 0x00, 0x00, 0xfe, 0x06, 0x06, 0x06, 0x06, 0x00, 0x00, 0x00, 0x00, 0x00
   527 00000BA8 06060000000000      <1>
   528 00000BAF 00C0C0C2C6CC183060- <1> 	db 0x00, 0xc0, 0xc0, 0xc2, 0xc6, 0xcc, 0x18, 0x30, 0x60, 0xce, 0x9b, 0x06, 0x0c, 0x1f, 0x00, 0x00
   529 00000BB8 CE9B060C1F0000      <1>
   530 00000BBF 00C0C0C2C6CC183066- <1> 	db 0x00, 0xc0, 0xc0, 0xc2, 0xc6, 0xcc, 0x18, 0x30, 0x66, 0xce, 0x96, 0x3e, 0x06, 0x06, 0x00, 0x00
   531 00000BC8 CE963E06060000      <1>
   532 00000BCF 00001818001818183C- <1> 	db 0x00, 0x00, 0x18, 0x18, 0x00, 0x18, 0x18, 0x18, 0x3c, 0x3c, 0x3c, 0x18, 0x00, 0x00, 0x00, 0x00
   533 00000BD8 3C3C1800000000      <1>
   534 00000BDF 0000000000366CD86C- <1> 	db 0x00, 0x00, 0x00, 0x00, 0x00, 0x36, 0x6c, 0xd8, 0x6c, 0x36, 0x00, 0x00, 0x00, 0x00, 0x00, 0x00
   535 00000BE8 36000000000000      <1>
   536 00000BEF 0000000000D86C366C- <1> 	db 0x00, 0x00, 0x00, 0x00, 0x00, 0xd8, 0x6c, 0x36, 0x6c, 0xd8, 0x00, 0x00, 0x00, 0x00, 0x00, 0x00
   537 00000BF8 D8000000000000      <1>
   538 00000BFF 114411441144114411- <1> 	db 0x11, 0x44, 0x11, 0x44, 0x11, 0x44, 0x11, 0x44, 0x11, 0x44, 0x11, 0x44, 0x11, 0x44, 0x11, 0x44
   539 00000C08 44114411441144      <1>
   540 00000C0F 55AA55AA55AA55AA55- <1> 	db 0x55, 0xaa, 0x55, 0xaa, 0x55, 0xaa, 0x55, 0xaa, 0x55, 0xaa, 0x55, 0xaa, 0x55, 0xaa, 0x55, 0xaa
   541 00000C18 AA55AA55AA55AA      <1>
   542 00000C1F DD77DD77DD77DD77DD- <1> 	db 0xdd, 0x77, 0xdd, 0x77, 0xdd, 0x77, 0xdd, 0x77, 0xdd, 0x77, 0xdd, 0x77, 0xdd, 0x77, 0xdd, 0x77
   543 00000C28 77DD77DD77DD77      <1>
   544 00000C2F 181818181818181818- <1> 	db 0x18, 0x18, 0x18, 0x18, 0x18, 0x18, 0x18, 0x18, 0x18, 0x18, 0x18, 0x18, 0x18, 0x18, 0x18, 0x18
   545 00000C38 18181818181818      <1>
   546 00000C3F 18181818181818F818- <1> 	db 0x18, 0x18, 0x18, 0x18, 0x18, 0x18, 0x18, 0xf8, 0x18, 0x18, 0x18, 0x18, 0x18, 0x18, 0x18, 0x18
   547 00000C48 18181818181818      <1>
   548 00000C4F 1818181818F818F818- <1> 	db 0x18, 0x18, 0x18, 0x18, 0x18, 0xf8, 0x18, 0xf8, 0x18, 0x18, 0x18, 0x18, 0x18, 0x18, 0x18, 0x18
   549 00000C58 18181818181818      <1>
   550 00000C5F 36363636363636F636- <1> 	db 0x36, 0x36, 0x36, 0x36, 0x36, 0x36, 0x36, 0xf6, 0x36, 0x36, 0x36, 0x36, 0x36, 0x36, 0x36, 0x36
   551 00000C68 36363636363636      <1>
   552 00000C6F 00000000000000FE36- <1> 	db 0x00, 0x00, 0x00, 0x00, 0x00, 0x00, 0x00, 0xfe, 0x36, 0x36, 0x36, 0x36, 0x36, 0x36, 0x36, 0x36
   553 00000C78 36363636363636      <1>
   554 00000C7F 0000000000F818F818- <1> 	db 0x00, 0x00, 0x00, 0x00, 0x00, 0xf8, 0x18, 0xf8, 0x18, 0x18, 0x18, 0x18, 0x18, 0x18, 0x18, 0x18
   555 00000C88 18181818181818      <1>
   556 00000C8F 3636363636F606F636- <1> 	db 0x36, 0x36, 0x36, 0x36, 0x36, 0xf6, 0x06, 0xf6, 0x36, 0x36, 0x36, 0x36, 0x36, 0x36, 0x36, 0x36
   557 00000C98 36363636363636      <1>
   558 00000C9F 363636363636363636- <1> 	db 0x36, 0x36, 0x36, 0x36, 0x36, 0x36, 0x36, 0x36, 0x36, 0x36, 0x36, 0x36, 0x36, 0x36, 0x36, 0x36
   559 00000CA8 36363636363636      <1>
   560 00000CAF 0000000000FE06F636- <1> 	db 0x00, 0x00, 0x00, 0x00, 0x00, 0xfe, 0x06, 0xf6, 0x36, 0x36, 0x36, 0x36, 0x36, 0x36, 0x36, 0x36
   561 00000CB8 36363636363636      <1>
   562 00000CBF 3636363636F606FE00- <1> 	db 0x36, 0x36, 0x36, 0x36, 0x36, 0xf6, 0x06, 0xfe, 0x00, 0x00, 0x00, 0x00, 0x00, 0x00, 0x00, 0x00
   563 00000CC8 00000000000000      <1>
   564 00000CCF 36363636363636FE00- <1> 	db 0x36, 0x36, 0x36, 0x36, 0x36, 0x36, 0x36, 0xfe, 0x00, 0x00, 0x00, 0x00, 0x00, 0x00, 0x00, 0x00
   565 00000CD8 00000000000000      <1>
   566 00000CDF 1818181818F818F800- <1> 	db 0x18, 0x18, 0x18, 0x18, 0x18, 0xf8, 0x18, 0xf8, 0x00, 0x00, 0x00, 0x00, 0x00, 0x00, 0x00, 0x00
   567 00000CE8 00000000000000      <1>
   568 00000CEF 00000000000000F818- <1> 	db 0x00, 0x00, 0x00, 0x00, 0x00, 0x00, 0x00, 0xf8, 0x18, 0x18, 0x18, 0x18, 0x18, 0x18, 0x18, 0x18
   569 00000CF8 18181818181818      <1>
   570 00000CFF 181818181818181F00- <1> 	db 0x18, 0x18, 0x18, 0x18, 0x18, 0x18, 0x18, 0x1f, 0x00, 0x00, 0x00, 0x00, 0x00, 0x00, 0x00, 0x00
   571 00000D08 00000000000000      <1>
   572 00000D0F 18181818181818FF00- <1> 	db 0x18, 0x18, 0x18, 0x18, 0x18, 0x18, 0x18, 0xff, 0x00, 0x00, 0x00, 0x00, 0x00, 0x00, 0x00, 0x00
   573 00000D18 00000000000000      <1>
   574 00000D1F 00000000000000FF18- <1> 	db 0x00, 0x00, 0x00, 0x00, 0x00, 0x00, 0x00, 0xff, 0x18, 0x18, 0x18, 0x18, 0x18, 0x18, 0x18, 0x18
   575 00000D28 18181818181818      <1>
   576 00000D2F 181818181818181F18- <1> 	db 0x18, 0x18, 0x18, 0x18, 0x18, 0x18, 0x18, 0x1f, 0x18, 0x18, 0x18, 0x18, 0x18, 0x18, 0x18, 0x18
   577 00000D38 18181818181818      <1>
   578 00000D3F 00000000000000FF00- <1> 	db 0x00, 0x00, 0x00, 0x00, 0x00, 0x00, 0x00, 0xff, 0x00, 0x00, 0x00, 0x00, 0x00, 0x00, 0x00, 0x00
   579 00000D48 00000000000000      <1>
   580 00000D4F 18181818181818FF18- <1> 	db 0x18, 0x18, 0x18, 0x18, 0x18, 0x18, 0x18, 0xff, 0x18, 0x18, 0x18, 0x18, 0x18, 0x18, 0x18, 0x18
   581 00000D58 18181818181818      <1>
   582 00000D5F 18181818181F181F18- <1> 	db 0x18, 0x18, 0x18, 0x18, 0x18, 0x1f, 0x18, 0x1f, 0x18, 0x18, 0x18, 0x18, 0x18, 0x18, 0x18, 0x18
   583 00000D68 18181818181818      <1>
   584 00000D6F 363636363636363736- <1> 	db 0x36, 0x36, 0x36, 0x36, 0x36, 0x36, 0x36, 0x37, 0x36, 0x36, 0x36, 0x36, 0x36, 0x36, 0x36, 0x36
   585 00000D78 36363636363636      <1>
   586 00000D7F 363636363637303F00- <1> 	db 0x36, 0x36, 0x36, 0x36, 0x36, 0x37, 0x30, 0x3f, 0x00, 0x00, 0x00, 0x00, 0x00, 0x00, 0x00, 0x00
   587 00000D88 00000000000000      <1>
   588 00000D8F 00000000003F303736- <1> 	db 0x00, 0x00, 0x00, 0x00, 0x00, 0x3f, 0x30, 0x37, 0x36, 0x36, 0x36, 0x36, 0x36, 0x36, 0x36, 0x36
   589 00000D98 36363636363636      <1>
   590 00000D9F 3636363636F700FF00- <1> 	db 0x36, 0x36, 0x36, 0x36, 0x36, 0xf7, 0x00, 0xff, 0x00, 0x00, 0x00, 0x00, 0x00, 0x00, 0x00, 0x00
   591 00000DA8 00000000000000      <1>
   592 00000DAF 0000000000FF00F736- <1> 	db 0x00, 0x00, 0x00, 0x00, 0x00, 0xff, 0x00, 0xf7, 0x36, 0x36, 0x36, 0x36, 0x36, 0x36, 0x36, 0x36
   593 00000DB8 36363636363636      <1>
   594 00000DBF 363636363637303736- <1> 	db 0x36, 0x36, 0x36, 0x36, 0x36, 0x37, 0x30, 0x37, 0x36, 0x36, 0x36, 0x36, 0x36, 0x36, 0x36, 0x36
   595 00000DC8 36363636363636      <1>
   596 00000DCF 0000000000FF00FF00- <1> 	db 0x00, 0x00, 0x00, 0x00, 0x00, 0xff, 0x00, 0xff, 0x00, 0x00, 0x00, 0x00, 0x00, 0x00, 0x00, 0x00
   597 00000DD8 00000000000000      <1>
   598 00000DDF 3636363636F700F736- <1> 	db 0x36, 0x36, 0x36, 0x36, 0x36, 0xf7, 0x00, 0xf7, 0x36, 0x36, 0x36, 0x36, 0x36, 0x36, 0x36, 0x36
   599 00000DE8 36363636363636      <1>
   600 00000DEF 1818181818FF00FF00- <1> 	db 0x18, 0x18, 0x18, 0x18, 0x18, 0xff, 0x00, 0xff, 0x00, 0x00, 0x00, 0x00, 0x00, 0x00, 0x00, 0x00
   601 00000DF8 00000000000000      <1>
   602 00000DFF 36363636363636FF00- <1> 	db 0x36, 0x36, 0x36, 0x36, 0x36, 0x36, 0x36, 0xff, 0x00, 0x00, 0x00, 0x00, 0x00, 0x00, 0x00, 0x00
   603 00000E08 00000000000000      <1>
   604 00000E0F 0000000000FF00FF18- <1> 	db 0x00, 0x00, 0x00, 0x00, 0x00, 0xff, 0x00, 0xff, 0x18, 0x18, 0x18, 0x18, 0x18, 0x18, 0x18, 0x18
   605 00000E18 18181818181818      <1>
   606 00000E1F 00000000000000FF36- <1> 	db 0x00, 0x00, 0x00, 0x00, 0x00, 0x00, 0x00, 0xff, 0x36, 0x36, 0x36, 0x36, 0x36, 0x36, 0x36, 0x36
   607 00000E28 36363636363636      <1>
   608 00000E2F 363636363636363F00- <1> 	db 0x36, 0x36, 0x36, 0x36, 0x36, 0x36, 0x36, 0x3f, 0x00, 0x00, 0x00, 0x00, 0x00, 0x00, 0x00, 0x00
   609 00000E38 00000000000000      <1>
   610 00000E3F 18181818181F181F00- <1> 	db 0x18, 0x18, 0x18, 0x18, 0x18, 0x1f, 0x18, 0x1f, 0x00, 0x00, 0x00, 0x00, 0x00, 0x00, 0x00, 0x00
   611 00000E48 00000000000000      <1>
   612 00000E4F 00000000001F181F18- <1> 	db 0x00, 0x00, 0x00, 0x00, 0x00, 0x1f, 0x18, 0x1f, 0x18, 0x18, 0x18, 0x18, 0x18, 0x18, 0x18, 0x18
   613 00000E58 18181818181818      <1>
   614 00000E5F 000000000000003F36- <1> 	db 0x00, 0x00, 0x00, 0x00, 0x00, 0x00, 0x00, 0x3f, 0x36, 0x36, 0x36, 0x36, 0x36, 0x36, 0x36, 0x36
   615 00000E68 36363636363636      <1>
   616 00000E6F 36363636363636FF36- <1> 	db 0x36, 0x36, 0x36, 0x36, 0x36, 0x36, 0x36, 0xff, 0x36, 0x36, 0x36, 0x36, 0x36, 0x36, 0x36, 0x36
   617 00000E78 36363636363636      <1>
   618 00000E7F 1818181818FF18FF18- <1> 	db 0x18, 0x18, 0x18, 0x18, 0x18, 0xff, 0x18, 0xff, 0x18, 0x18, 0x18, 0x18, 0x18, 0x18, 0x18, 0x18
   619 00000E88 18181818181818      <1>
   620 00000E8F 18181818181818F800- <1> 	db 0x18, 0x18, 0x18, 0x18, 0x18, 0x18, 0x18, 0xf8, 0x00, 0x00, 0x00, 0x00, 0x00, 0x00, 0x00, 0x00
   621 00000E98 00000000000000      <1>
   622 00000E9F 000000000000001F18- <1> 	db 0x00, 0x00, 0x00, 0x00, 0x00, 0x00, 0x00, 0x1f, 0x18, 0x18, 0x18, 0x18, 0x18, 0x18, 0x18, 0x18
   623 00000EA8 18181818181818      <1>
   624 00000EAF FFFFFFFFFFFFFFFFFF- <1> 	db 0xff, 0xff, 0xff, 0xff, 0xff, 0xff, 0xff, 0xff, 0xff, 0xff, 0xff, 0xff, 0xff, 0xff, 0xff, 0xff
   625 00000EB8 FFFFFFFFFFFFFF      <1>
   626 00000EBF 00000000000000FFFF- <1> 	db 0x00, 0x00, 0x00, 0x00, 0x00, 0x00, 0x00, 0xff, 0xff, 0xff, 0xff, 0xff, 0xff, 0xff, 0xff, 0xff
   627 00000EC8 FFFFFFFFFFFFFF      <1>
   628 00000ECF F0F0F0F0F0F0F0F0F0- <1> 	db 0xf0, 0xf0, 0xf0, 0xf0, 0xf0, 0xf0, 0xf0, 0xf0, 0xf0, 0xf0, 0xf0, 0xf0, 0xf0, 0xf0, 0xf0, 0xf0
   629 00000ED8 F0F0F0F0F0F0F0      <1>
   630 00000EDF 0F0F0F0F0F0F0F0F0F- <1> 	db 0x0f, 0x0f, 0x0f, 0x0f, 0x0f, 0x0f, 0x0f, 0x0f, 0x0f, 0x0f, 0x0f, 0x0f, 0x0f, 0x0f, 0x0f, 0x0f
   631 00000EE8 0F0F0F0F0F0F0F      <1>
   632 00000EEF FFFFFFFFFFFFFF0000- <1> 	db 0xff, 0xff, 0xff, 0xff, 0xff, 0xff, 0xff, 0x00, 0x00, 0x00, 0x00, 0x00, 0x00, 0x00, 0x00, 0x00
   633 00000EF8 00000000000000      <1>
   634 00000EFF 000000000076DCD8D8- <1> 	db 0x00, 0x00, 0x00, 0x00, 0x00, 0x76, 0xdc, 0xd8, 0xd8, 0xd8, 0xdc, 0x76, 0x00, 0x00, 0x00, 0x00
   635 00000F08 D8DC7600000000      <1>
   636 00000F0F 000078CCCCCCD8CCC6- <1> 	db 0x00, 0x00, 0x78, 0xcc, 0xcc, 0xcc, 0xd8, 0xcc, 0xc6, 0xc6, 0xc6, 0xcc, 0x00, 0x00, 0x00, 0x00
   637 00000F18 C6C6CC00000000      <1>
   638 00000F1F 0000FEC6C6C0C0C0C0- <1> 	db 0x00, 0x00, 0xfe, 0xc6, 0xc6, 0xc0, 0xc0, 0xc0, 0xc0, 0xc0, 0xc0, 0xc0, 0x00, 0x00, 0x00, 0x00
   639 00000F28 C0C0C000000000      <1>
   640 00000F2F 00000000FE6C6C6C6C- <1> 	db 0x00, 0x00, 0x00, 0x00, 0xfe, 0x6c, 0x6c, 0x6c, 0x6c, 0x6c, 0x6c, 0x6c, 0x00, 0x00, 0x00, 0x00
   641 00000F38 6C6C6C00000000      <1>
   642 00000F3F 000000FEC660301830- <1> 	db 0x00, 0x00, 0x00, 0xfe, 0xc6, 0x60, 0x30, 0x18, 0x30, 0x60, 0xc6, 0xfe, 0x00, 0x00, 0x00, 0x00
   643 00000F48 60C6FE00000000      <1>
   644 00000F4F 00000000007ED8D8D8- <1> 	db 0x00, 0x00, 0x00, 0x00, 0x00, 0x7e, 0xd8, 0xd8, 0xd8, 0xd8, 0xd8, 0x70, 0x00, 0x00, 0x00, 0x00
   645 00000F58 D8D87000000000      <1>
   646 00000F5F 000000006666666666- <1> 	db 0x00, 0x00, 0x00, 0x00, 0x66, 0x66, 0x66, 0x66, 0x66, 0x7c, 0x60, 0x60, 0xc0, 0x00, 0x00, 0x00
   647 00000F68 7C6060C0000000      <1>
   648 00000F6F 0000000076DC181818- <1> 	db 0x00, 0x00, 0x00, 0x00, 0x76, 0xdc, 0x18, 0x18, 0x18, 0x18, 0x18, 0x18, 0x00, 0x00, 0x00, 0x00
   649 00000F78 18181800000000      <1>
   650 00000F7F 0000007E183C666666- <1> 	db 0x00, 0x00, 0x00, 0x7e, 0x18, 0x3c, 0x66, 0x66, 0x66, 0x3c, 0x18, 0x7e, 0x00, 0x00, 0x00, 0x00
   651 00000F88 3C187E00000000      <1>
   652 00000F8F 000000386CC6C6FEC6- <1> 	db 0x00, 0x00, 0x00, 0x38, 0x6c, 0xc6, 0xc6, 0xfe, 0xc6, 0xc6, 0x6c, 0x38, 0x00, 0x00, 0x00, 0x00
   653 00000F98 C66C3800000000      <1>
   654 00000F9F 0000386CC6C6C66C6C- <1> 	db 0x00, 0x00, 0x38, 0x6c, 0xc6, 0xc6, 0xc6, 0x6c, 0x6c, 0x6c, 0x6c, 0xee, 0x00, 0x00, 0x00, 0x00
   655 00000FA8 6C6CEE00000000      <1>
   656 00000FAF 00001E30180C3E6666- <1> 	db 0x00, 0x00, 0x1e, 0x30, 0x18, 0x0c, 0x3e, 0x66, 0x66, 0x66, 0x66, 0x3c, 0x00, 0x00, 0x00, 0x00
   657 00000FB8 66663C00000000      <1>
   658 00000FBF 00000000007EDBDBDB- <1> 	db 0x00, 0x00, 0x00, 0x00, 0x00, 0x7e, 0xdb, 0xdb, 0xdb, 0x7e, 0x00, 0x00, 0x00, 0x00, 0x00, 0x00
   659 00000FC8 7E000000000000      <1>
   660 00000FCF 00000003067EDBDBF3- <1> 	db 0x00, 0x00, 0x00, 0x03, 0x06, 0x7e, 0xdb, 0xdb, 0xf3, 0x7e, 0x60, 0xc0, 0x00, 0x00, 0x00, 0x00
   661 00000FD8 7E60C000000000      <1>
   662 00000FDF 00001C3060607C6060- <1> 	db 0x00, 0x00, 0x1c, 0x30, 0x60, 0x60, 0x7c, 0x60, 0x60, 0x60, 0x30, 0x1c, 0x00, 0x00, 0x00, 0x00
   663 00000FE8 60301C00000000      <1>
   664 00000FEF 0000007CC6C6C6C6C6- <1> 	db 0x00, 0x00, 0x00, 0x7c, 0xc6, 0xc6, 0xc6, 0xc6, 0xc6, 0xc6, 0xc6, 0xc6, 0x00, 0x00, 0x00, 0x00
   665 00000FF8 C6C6C600000000      <1>
   666 00000FFF 00000000FE0000FE00- <1> 	db 0x00, 0x00, 0x00, 0x00, 0xfe, 0x00, 0x00, 0xfe, 0x00, 0x00, 0xfe, 0x00, 0x00, 0x00, 0x00, 0x00
   667 00001008 00FE0000000000      <1>
   668 0000100F 0000000018187E1818- <1> 	db 0x00, 0x00, 0x00, 0x00, 0x18, 0x18, 0x7e, 0x18, 0x18, 0x00, 0x00, 0xff, 0x00, 0x00, 0x00, 0x00
   669 00001018 0000FF00000000      <1>
   670 0000101F 00000030180C060C18- <1> 	db 0x00, 0x00, 0x00, 0x30, 0x18, 0x0c, 0x06, 0x0c, 0x18, 0x30, 0x00, 0x7e, 0x00, 0x00, 0x00, 0x00
   671 00001028 30007E00000000      <1>
   672 0000102F 0000000C1830603018- <1> 	db 0x00, 0x00, 0x00, 0x0c, 0x18, 0x30, 0x60, 0x30, 0x18, 0x0c, 0x00, 0x7e, 0x00, 0x00, 0x00, 0x00
   673 00001038 0C007E00000000      <1>
   674 0000103F 00000E1B1B18181818- <1> 	db 0x00, 0x00, 0x0e, 0x1b, 0x1b, 0x18, 0x18, 0x18, 0x18, 0x18, 0x18, 0x18, 0x18, 0x18, 0x18, 0x18
   675 00001048 18181818181818      <1>
   676 0000104F 1818181818181818D8- <1> 	db 0x18, 0x18, 0x18, 0x18, 0x18, 0x18, 0x18, 0x18, 0xd8, 0xd8, 0xd8, 0x70, 0x00, 0x00, 0x00, 0x00
   677 00001058 D8D87000000000      <1>
   678 0000105F 000000001818007E00- <1> 	db 0x00, 0x00, 0x00, 0x00, 0x18, 0x18, 0x00, 0x7e, 0x00, 0x18, 0x18, 0x00, 0x00, 0x00, 0x00, 0x00
   679 00001068 18180000000000      <1>
   680 0000106F 000000000076DC0076- <1> 	db 0x00, 0x00, 0x00, 0x00, 0x00, 0x76, 0xdc, 0x00, 0x76, 0xdc, 0x00, 0x00, 0x00, 0x00, 0x00, 0x00
   681 00001078 DC000000000000      <1>
   682 0000107F 00386C6C3800000000- <1> 	db 0x00, 0x38, 0x6c, 0x6c, 0x38, 0x00, 0x00, 0x00, 0x00, 0x00, 0x00, 0x00, 0x00, 0x00, 0x00, 0x00
   683 00001088 00000000000000      <1>
   684 0000108F 000000000000001818- <1> 	db 0x00, 0x00, 0x00, 0x00, 0x00, 0x00, 0x00, 0x18, 0x18, 0x00, 0x00, 0x00, 0x00, 0x00, 0x00, 0x00
   685 00001098 00000000000000      <1>
   686 0000109F 000000000000000018- <1> 	db 0x00, 0x00, 0x00, 0x00, 0x00, 0x00, 0x00, 0x00, 0x18, 0x00, 0x00, 0x00, 0x00, 0x00, 0x00, 0x00
   687 000010A8 00000000000000      <1>
   688 000010AF 000F0C0C0C0C0CEC6C- <1> 	db 0x00, 0x0f, 0x0c, 0x0c, 0x0c, 0x0c, 0x0c, 0xec, 0x6c, 0x6c, 0x3c, 0x1c, 0x00, 0x00, 0x00, 0x00
   689 000010B8 6C3C1C00000000      <1>
   690 000010BF 00D86C6C6C6C6C0000- <1> 	db 0x00, 0xd8, 0x6c, 0x6c, 0x6c, 0x6c, 0x6c, 0x00, 0x00, 0x00, 0x00, 0x00, 0x00, 0x00, 0x00, 0x00
   691 000010C8 00000000000000      <1>
   692 000010CF 0070D83060C8F80000- <1> 	db 0x00, 0x70, 0xd8, 0x30, 0x60, 0xc8, 0xf8, 0x00, 0x00, 0x00, 0x00, 0x00, 0x00, 0x00, 0x00, 0x00
   693 000010D8 00000000000000      <1>
   694 000010DF 000000007C7C7C7C7C- <1> 	db 0x00, 0x00, 0x00, 0x00, 0x7c, 0x7c, 0x7c, 0x7c, 0x7c, 0x7c, 0x7c, 0x00, 0x00, 0x00, 0x00, 0x00
   695 000010E8 7C7C0000000000      <1>
   696 000010EF 000000000000000000- <1> 	db 0x00, 0x00, 0x00, 0x00, 0x00, 0x00, 0x00, 0x00, 0x00, 0x00, 0x00, 0x00, 0x00, 0x00, 0x00, 0x00
   697 000010F8 00000000000000      <1>
   698                              <1> 
   699                              <1> ;--------------------------------------------------------------------------------
   700                              <1> ; Punto de entrada
   701                              <1> ;--------------------------------------------------------------------------------
   702                              <1> bios_init:
   703 000010FF 87DB                <1> 	xchg	bx, bx				; Magic breakpoint
   704                              <1> 
   705                              <1> ; Recorrer bus PCI. Bochs solo soporta bus cero ya que no tiene "PCI to PCI bridge".
   706                              <1> ; Cada bus tiene hasta 32 dispositivos.
   707                              <1> ; Si el dispositivo es compuesto puede tener hasta 8 funciones.
   708                              <1> ; Formato puerto 0x0CF8:
   709                              <1> ; Bit 31 = Siempre a "1"
   710                              <1> ; Bits 30-24 = Reservado (siempre a "0")
   711                              <1> ; Bits 23-16 = Número de bus (0 en nuestra aplicación)
   712                              <1> ; Bits 15-11 = Número de dispositivo (0-31)
   713                              <1> ; Bits 10-8 = Número de función (0-7)
   714                              <1> ; Bits 7-2 = Número de registro
   715                              <1> ; Bits 1-0: Siempre cero.
   716                              <1> 
   717                              <1> recorrer_bus_pci:
   718 00001101 66BD00400000        <1> 	mov 	ebp, 0x4000     	; Primera dirección de entrada/salida para PCI.
   719 00001107 66BF000000C0        <1> 	mov 	edi, 0xC0000000 	; Primera dirección a asignar a dispositivos PCI.
   720 0000110D 66BE00000080        <1> 	mov 	esi, 0x80000000 	; Bus 0, dispositivo 0, función 0.
   721                              <1> 
   722                              <1> ciclo_recorrer_bus_pci:
   723 00001113 6681FE00000180      <1> 	cmp 	esi, 0x80010000 	; Verificar si se recorrió todo el bus 0.
   724 0000111A 0F843001            <1> 	jz 		fin_recorrido_pci
   725                              <1> 								; Leer registro 0: Bits 31-16: device ID,
   726                              <1> leer_registro_pci 0        		; Bits 15-0: vendor ID.
   727 0000111E 66B800000000        <2>  mov eax, %1
   728 00001124 6609F0              <2>  or eax, esi
   729 00001127 BAF80C              <2>  mov dx, 0x0CF8
   730 0000112A 66EF                <2>  out dx, eax
   731 0000112C BAFC0C              <2>  mov dx, 0x0CFC
   732 0000112F 66ED                <2>  in eax, dx
   733 00001131 83F8FF              <1> 	cmp 	ax, 0xFFFF      	; Vendor ID 0xFFFF no existe.
   734 00001134 7509                <1> 	jnz 	dispositivo_hallado
   735 00001136 6681C600080000      <1> 	add 	esi,0x0800     		; Ir al siguiente dispositivo
   736 0000113D EBD4                <1> 	jmp 	ciclo_recorrer_bus_pci
   737                              <1> 
   738                              <1> dispositivo_hallado:			; Leer registro 0x0C: Bit 23: multiple function bit
   739                              <1> 	leer_registro_pci 0x0C
   740 0000113F 66B80C000000        <2>  mov eax, %1
   741 00001145 6609F0              <2>  or eax, esi
   742 00001148 BAF80C              <2>  mov dx, 0x0CF8
   743 0000114B 66EF                <2>  out dx, eax
   744 0000114D BAFC0C              <2>  mov dx, 0x0CFC
   745 00001150 66ED                <2>  in eax, dx
   746 00001152 B508                <1> 	mov 	ch, 8       	    ; Cantidad de funciones a procesar.
   747 00001154 660FBAE017          <1> 	bt 		eax, 23
   748 00001159 7202                <1> 	jc 		procesar_funcion
   749 0000115B B501                <1> 	mov 	ch, 1
   750                              <1> 	
   751                              <1> procesar_funcion:				; Leer registro 0: Bits 31-16: device ID,
   752                              <1> 	leer_registro_pci 0      	; Bits 15-0: vendor ID.
   753 0000115D 66B800000000        <2>  mov eax, %1
   754 00001163 6609F0              <2>  or eax, esi
   755 00001166 BAF80C              <2>  mov dx, 0x0CF8
   756 00001169 66EF                <2>  out dx, eax
   757 0000116B BAFC0C              <2>  mov dx, 0x0CFC
   758 0000116E 66ED                <2>  in eax, dx
   759 00001170 83F8FF              <1> 	cmp  	ax, 0xFFFF    		; Vendor ID 0xFFFF no existe.
   760 00001173 7523                <1> 	jnz 	funcion_hallada   
   761                              <1> 
   762                              <1> ir_a_siguiente_funcion:
   763 00001175 6681C600010000      <1> 	add 	esi, 0x0100    		; Ir a la siguiente función
   764 0000117C FECD                <1> 	dec 	ch
   765 0000117E 75DD                <1> 	jnz 	procesar_funcion
   766 00001180 6681EE00010000      <1> 	sub 	esi, 0x0100     	; Ir al siguiente dispositivo
   767 00001187 6681CE00070000      <1> 	or		esi, 0x0700
   768 0000118E 6681C600010000      <1> 	add 	esi, 0x0100
   769 00001195 E97BFF              <1> 	jmp 	ciclo_recorrer_bus_pci
   770                              <1> 
   771                              <1> funcion_hallada:				; Leer registro 0x0C: Bits 22-16: header type
   772                              <1> 	leer_registro_pci 0x0C
   773 00001198 66B80C000000        <2>  mov eax, %1
   774 0000119E 6609F0              <2>  or eax, esi
   775 000011A1 BAF80C              <2>  mov dx, 0x0CF8
   776 000011A4 66EF                <2>  out dx, eax
   777 000011A6 BAFC0C              <2>  mov dx, 0x0CFC
   778 000011A9 66ED                <2>  in eax, dx
   779 000011AB 66A900007F00        <1> 	test 	eax,0x007F0000 		; Solo soportamos header type cero.
   780 000011B1 75C2                <1> 	jnz 	ir_a_siguiente_funcion
   781                              <1> 	leer_registro_pci 0x08		; Leer clase y subclase.
   782 000011B3 66B808000000        <2>  mov eax, %1
   783 000011B9 6609F0              <2>  or eax, esi
   784 000011BC BAF80C              <2>  mov dx, 0x0CF8
   785 000011BF 66EF                <2>  out dx, eax
   786 000011C1 BAFC0C              <2>  mov dx, 0x0CFC
   787 000011C4 66ED                <2>  in eax, dx
   788 000011C6 B110                <1> 	mov 	cl, 0x10         	; Apuntar al primer Base Address Register (BAR)
   789                              <1> 
   790                              <1> ciclo_llenar_BAR:
   791 000011C8 660FB6C1            <1> 	movzx 	eax, cl
   792 000011CC 6609F0              <1> 	or 		eax, esi 
   793 000011CF BAF80C              <1> 	mov		dx, 0x0CF8
   794 000011D2 66EF                <1> 	out		dx, eax
   795 000011D4 66B8FFFFFFFF        <1> 	mov 	eax, 0xFFFFFFFF  	; Escribir 0xFFFFFFFF en el BAR
   796 000011DA BAFC0C              <1> 	mov 	dx, 0x0CFC  
   797 000011DD 66EF                <1> 	out 	dx, eax
   798 000011DF 660FB6C1            <1> 	movzx 	eax, cl
   799                              <1> 	leer_registro_pci eax 		; Leerlo.
   800 000011E3 6689C0              <2>  mov eax, %1
   801 000011E6 6609F0              <2>  or eax, esi
   802 000011E9 BAF80C              <2>  mov dx, 0x0CF8
   803 000011EC 66EF                <2>  out dx, eax
   804 000011EE BAFC0C              <2>  mov dx, 0x0CFC
   805 000011F1 66ED                <2>  in eax, dx
   806 000011F3 A801                <1> 	test 	al, 1           	; Ver si el dispositivo está mapeado en memoria.
   807 000011F5 741E                <1> 	jz 		mapeado_en_memoria
   808 000011F7 83E0FC              <1> 	and  	ax, 0xFFFC       	; Eliminar los dos bits que no se usan para ports.
   809 000011FA 7445                <1> 	jz 		ajustar_siguiente_BAR  ; El dispositivo no usa este BAR.
   810 000011FC 66F7D0              <1> 	not 	eax             	; Convertir en cantidad de bytes que se usa - 1.
   811 000011FF 6689C3              <1> 	mov 	ebx, eax
   812 00001202 4D                  <1> 	dec 	bp              	; Poner BP en dirección múltiplo de la cantidad
   813 00001203 09C5                <1> 	or 		bp, ax            	; de bytes que usa esta función.
   814 00001205 45                  <1> 	inc 	bp
   815 00001206 660FB6C1            <1> 	movzx 	eax, cl
   816 0000120A 6609F0              <1> 	or 		eax, esi 
   817 0000120D BAF80C              <1> 	mov 	dx, 0x0CF8
   818 00001210 6689E8              <1> 	mov 	eax, ebp
   819 00001213 EB22                <1> 	jmp 	ajustar_BAR
   820                              <1> 
   821                              <1> mapeado_en_memoria:
   822 00001215 6683E0F0            <1> 	and 	eax, 0xFFFFFFF0  	; Eliminar los 4 bits que no se usan para puntero.
   823 00001219 7426                <1> 	jz 		ajustar_siguiente_BAR  ; El dispositivo no usa este BAR.
   824 0000121B 66F7D0              <1> 	not 	eax             	; Convertir en cantidad de bytes que se usa - 1.
   825 0000121E 6689C3              <1> 	mov 	ebx, eax
   826 00001221 664F                <1> 	dec 	edi             	; Poner EDI en dirección múltiplo de la cantidad
   827 00001223 6609C7              <1> 	or 		edi, eax          	; de bytes que usa esta función.
   828 00001226 6647                <1> 	inc 	edi
   829 00001228 660FB6C1            <1> 	movzx 	eax, cl
   830 0000122C 6609F0              <1> 	or 		eax, esi 
   831 0000122F BAF80C              <1> 	mov 	dx, 0x0CF8
   832 00001232 66EF                <1> 	out 	dx, eax
   833 00001234 6689F8              <1> 	mov 	eax, edi
   834                              <1> 
   835                              <1> ajustar_BAR:
   836 00001237 BAFC0C              <1> 	mov 	dx, 0x0CFC  
   837 0000123A 66EF                <1> 	out 	dx, eax
   838 0000123C 6601DD              <1> 	add 	ebp, ebx         	; Apuntar a puerto después de esta función.
   839 0000123F 6645                <1> 	inc 	ebp
   840                              <1> 
   841                              <1> ajustar_siguiente_BAR:
   842 00001241 80C104              <1> 	add 	cl, 4          	  	; Apuntar al siguiente BAR.
   843 00001244 80F928              <1> 	cmp 	cl, 0x28         	; Todos los BAR listos?
   844 00001247 0F857DFF            <1> 	jnz 	ciclo_llenar_BAR
   845 0000124B E927FF              <1> 	jmp 	ir_a_siguiente_funcion
   846                              <1> fin_recorrido_pci:
   847                              <1>  
   848                              <1> ;--------------------------------------------------------------------------------
   849                              <1> ; Inicializar pantalla con texto
   850                              <1> ;--------------------------------------------------------------------------------
   851                              <1> habilitar_modo_texto:
   852                              <1> ; Set MISC regs
   853 0000124E BAC203              <1> 	mov 	dx, 0x3C2  			; VGA_MISC_ADDR
   854 00001251 B067                <1> 	mov 	al, 0x67
   855 00001253 EE                  <1> 	out 	dx, al
   856 00001254 BADA03              <1> 	mov 	dx, 0x3DA  			; VGA_STATUS_ADDR
   857 00001257 B000                <1> 	mov 	al, 0
   858 00001259 EE                  <1> 	out 	dx, al
   859                              <1> ; Send SEQ regs
   860 0000125A FC                  <1> 	cld
   861 0000125B B100                <1> 	mov 	cl, 0
   862 0000125D BE[0300]            <1> 	mov 	si, seq_regs_data
   863                              <1> 
   864                              <1> seq_regs_loop:
   865 00001260 BAC403              <1> 	mov dx, 0x3C4  				; Puerto del secuenciador VGA (índice)
   866 00001263 88C8                <1> 	mov al, cl
   867 00001265 EE                  <1> 	out dx, al
   868                              <1> 
   869 00001266 42                  <1> 	inc 	dx         			; Puerto del secuenciador VGA (datos)
   870 00001267 2EAC                <1> 	cs 	lodsb       			; Leer dato a escribit en puerto.
   871 00001269 EE                  <1> 	out 	dx, al     			; Escribir en controlador VGA.
   872                              <1> 
   873                              <1> ; continue loop
   874 0000126A FEC1                <1> 	inc 	cl         			; Siguiente índice.
   875 0000126C 80F905              <1> 	cmp 	cl, 5
   876 0000126F 75EF                <1> 	jne 	seq_regs_loop
   877                              <1> 
   878                              <1> ; Eliminar protección de los registros 0 a 7 del controlador VGA.
   879 00001271 B8112C              <1> 	mov 	ax, 0x2C11
   880 00001274 BAD403              <1> 	mov 	dx, 0x3D4  			; VGA_CRTC_ADDR
   881 00001277 EF                  <1> 	out 	dx, ax
   882                              <1> 
   883                              <1> ; send CRTC regs
   884 00001278 B100                <1> 	mov 	cl, 0
   885 0000127A BE[0800]            <1> 	mov 	si, crtc_regs_data
   886                              <1> crtc_regs_loop:
   887 0000127D BAD403              <1> 	mov 	dx, 0x3D4  			; Puerto de índice del controlador VGA
   888 00001280 88C8                <1> 	mov 	al, cl
   889 00001282 EE                  <1> 	out 	dx, al
   890 00001283 2EAC                <1> 	cs 		lodsb
   891 00001285 42                  <1> 	inc 	dx         			; Puerto de datos del controlador VGA.
   892 00001286 EE                  <1> 	out 	dx, al
   893 00001287 FEC1                <1> 	inc 	cl
   894 00001289 80F919              <1> 	cmp 	cl, 25
   895 0000128C 72EF                <1> 	jb 	crtc_regs_loop
   896                              <1> 
   897                              <1> inicializar_paleta:
   898 0000128E B100                <1> 	mov 	cl, 0
   899 00001290 BE[3F00]            <1> 	mov 	si, palette_data
   900                              <1> inicializar_paleta_loop:
   901 00001293 BAC803              <1> 	mov 	dx, 0x3C8 			; Puerto de índice paleta
   902 00001296 88C8                <1> 	mov 	al, cl    			; Escribir número de registro
   903 00001298 EE                  <1> 	out 	dx, al
   904 00001299 42                  <1> 	inc 	dx        			; Apuntar al puerto de datos.
   905 0000129A 2EAC                <1> 	cs 		lodsb      			; Leer dato a cargar en el registro.
   906 0000129C EE                  <1> 	out 	dx, al    			; Cargar dato en el registro.
   907 0000129D 2EAC                <1> 	cs 		lodsb      			; Leer dato a cargar en el registro.
   908 0000129F EE                  <1> 	out		dx, al    			; Cargar dato en el registro.
   909 000012A0 2EAC                <1> 	cs 		lodsb      			; Leer dato a cargar en el registro.
   910 000012A2 EE                  <1> 	out 	dx, al    			; Cargar dato en el registro.
   911 000012A3 FEC1                <1> 	inc 	cl
   912 000012A5 80F940              <1> 	cmp 	cl,64
   913 000012A8 72E9                <1> 	jb 		inicializar_paleta_loop
   914                              <1> ;Inicializar registros del controlador gráfico de VGA.
   915 000012AA B100                <1> 	mov 	cl, 0
   916 000012AC BE[2100]            <1> 	mov 	si, graphics_regs_data
   917                              <1> graphics_regs_loop:
   918                              <1> ; send register number to 3CE
   919 000012AF BACE03              <1> 	mov 	dx, 0x3CE 			; VGA_GRAPHICS_CONTROLLER_ADDR
   920 000012B2 88C8                <1> 	mov 	al, cl
   921 000012B4 EE                  <1> 	out 	dx, al
   922                              <1> 
   923                              <1> ; send register value to 3CF
   924 000012B5 2EAC                <1> 	cs 		lodsb
   925 000012B7 42                  <1> 	inc		dx
   926 000012B8 EE                  <1> 	out 	dx, al
   927                              <1> 
   928                              <1> ; continue GRAPHICS loop
   929 000012B9 FEC1                <1> 	inc 	cl
   930 000012BB 80F909              <1> 	cmp 	cl, 9
   931 000012BE 72EF                <1> 	jb 		graphics_regs_loop
   932                              <1> 
   933                              <1> ; Habilitar escritura al puerto del controlador de atributos
   934 000012C0 BADA03              <1> 	mov 	dx, 0x3DA 			; VGA STATUS ADDR
   935 000012C3 EC                  <1> 	in 		al, dx
   936                              <1> ; Inicializar registros del controlador de atributos.
   937 000012C4 B100                <1> 	mov 	cl, 0
   938 000012C6 BE[2A00]            <1> 	mov 	si, attrcon_regs_data
   939                              <1> attrcon_regs_loop:
   940                              <1> ; Apuntar al controlador de atributos.
   941 000012C9 BAC003              <1> 	mov 	dx, 0x3C0 			; VGA_ATTRCON_ADDR
   942 000012CC 88C8                <1> 	mov 	al, cl   			; Escribir número de registro
   943 000012CE EE                  <1> 	out 	dx, al
   944 000012CF 2EAC                <1> 	cs 		lodsb      			; Leer dato a cargar en el registro.
   945 000012D1 EE                  <1> 	out 	dx, al    			; Cargar dato en el registro.
   946                              <1>  
   947 000012D2 FEC1                <1> 	inc 	cl        			; Apuntar al siguiente registro.
   948 000012D4 80F915              <1> 	cmp 	cl, 21    			; Ver si se escribieron todos los registros del ATTRCON.
   949 000012D7 72F0                <1> 	jb 		attrcon_regs_loop 	; Saltar si no es así.
   950                              <1> 
   951 000012D9 B020                <1> 	mov 	al, 0x20  			; Reactivar el refresco de pantalla porque la
   952 000012DB EE                  <1> 	out 	dx, al    			; escritura a registros de ATTRCON lo desactiva.
   953                              <1> 
   954 000012DC BACE03              <1> 	mov 	dx, 0x03ce 			; borrar modo par/impar
   955 000012DF B80500              <1> 	mov 	ax, 5
   956 000012E2 EF                  <1> 	out 	dx, ax
   957                              <1> 
   958 000012E3 B80604              <1> 	mov 	ax, 0x0406 			; Mapear memoria VGA a 0xA0000.
   959 000012E6 EF                  <1> 	out 	dx, ax
   960                              <1> 
   961 000012E7 BAC403              <1> 	mov 	dx, 0x03c4			; Poner el plano de bits número 2
   962 000012EA B80204              <1> 	mov 	ax, 0x0402
   963 000012ED EF                  <1> 	out 	dx, ax
   964                              <1> 
   965 000012EE B80406              <1> 	mov 	ax, 0x0604  		; Borrar modo par/impar.
   966 000012F1 EF                  <1> 	out 	dx, ax
   967                              <1> 
   968 000012F2 B800A0              <1> 	mov 	ax, 0xA000  		; Copiar mapa de caracteres.
   969 000012F5 8EC0                <1> 	mov 	es, ax
   970 000012F7 BF0000              <1> 	mov 	di, 0x0000
   971 000012FA BE[FF00]            <1> 	mov 	si, font16x8
   972 000012FD B90001              <1> 	mov 	cx, 256
   973                              <1> ciclo_copia_fonts:
   974 00001300 2E66A5              <1> 	cs 		movsd         		; Copiar 16 bytes al bitmap.
   975 00001303 2E66A5              <1> 	cs 		movsd
   976 00001306 2E66A5              <1> 	cs 		movsd
   977 00001309 2E66A5              <1> 	cs 		movsd
   978 0000130C 83C710              <1> 	add 	di, 16       		; Saltear 16 bytes (VGA requiere 32 bytes/carácter)
   979 0000130F E2EF                <1> 	loop 	ciclo_copia_fonts
   980                              <1> 
   981 00001311 B80203              <1> 	mov 	ax, 0x0302   		; Volver a la operación normal.
   982 00001314 EF                  <1> 	out 	dx, ax
   983 00001315 B80402              <1> 	mov 	ax, 0x0204
   984 00001318 EF                  <1> 	out 	dx, ax
   985 00001319 BACE03              <1> 	mov 	dx, 0x03ce
   986 0000131C B80510              <1> 	mov 	ax, 0x1005
   987 0000131F EF                  <1> 	out 	dx, ax
   988 00001320 B8060E              <1> 	mov 	ax, 0x0E06
   989 00001323 EF                  <1> 	out 	dx, ax
   990                              <1> 	  
   991                              <1> 
   992                              <1> 
   993                                  
   994 00001324 E92F01                       jmp pasaje_aMP
   995                                     
   996 00001327 90                         ALIGN 8
   997                                     
   998                                  GDT:
   999 00001328 0000000000000000             dq 0        ;Selector nulo. No se puede usar.
  1000                                       
  1001                                  CS_SEL equ $-GDT
  1002                                        
  1003 00001330 FFFF                         dw 0xffff   ;Limite bits 15 a 0
  1004 00001332 0000                         dw 0        ;Base bits 15 a 0
  1005 00001334 FF                           db 0xff     ;Base bits 23 a 16
  1006 00001335 9A                           db 0x9a     ;Byte de derechos de acceso. Segmento de código DPL = 0
  1007 00001336 CF                           db 0xcf     ;Granularidad y Default = 1, Límite bits 19 a 16.
  1008 00001337 FF                           db 0xff     ;Base bits 31 a 24
  1009                                           
  1010                                  DS_SEL equ $-GDT
  1011                                        
  1012 00001338 FFFF                         dw 0xffff   ;Limite bits 15 a 0
  1013 0000133A 0000                         dw 0        ;Base bits 15 a 0
  1014 0000133C 00                           db 0        ;Base bits 23 a 16
  1015 0000133D 92                           db 0x92     ;Byte de derechos de acceso. Segmento de datos DPL = 0
  1016 0000133E CF                           db 0xcf     ;Granularidad y Default = 1, Límite bits 19 a 16.
  1017 0000133F 00                           db 0x0      ;Base bits 31 a 24
  1018                                        
  1019                                  GDT_tam equ $-GDT 
  1020                                        
  1021                                  imagen_gdtr:
  1022                                   
  1023 00001340 1700                         dw  GDT_tam -1     ;Límite GDT (16 bits)
  1024 00001342 [28130F00]                   dd  0xf0000 + GDT  ;Base GDT (32 bits)
  1025                                       
  1026 00001346 90<rept>                     ALIGN 8
  1027                                  
  1028                                  IDT:
  1029 00001348 00<rept>                     times 32*8 db 0  
  1030                                     
  1031 00001448 [8414]                       dw  handler_timer  ;PARTE BAJA del offset del handler
  1032 0000144A 0800                         dw  CS_SEL
  1033 0000144C 00                           db  0
  1034 0000144D 8E                           db  0x8e
  1035 0000144E 0000                         dw  0x0            ;PARTE ALTA del offset del handler (ojo que base de CS apunta a ROM).
  1036                                     
  1037                                  IDT_LEN equ $ - IDT  
  1038                                     
  1039                                  imagen_idtr:
  1040                                   
  1041 00001450 0701                         dw  IDT_LEN -1     ;Límite IDT (16 bits)
  1042 00001452 [48130F00]                   dd  0xf0000 + IDT  ;Base IDT (32 bits)
  1043                                     
  1044                                  BUFFER_DOBLE_OFFS EQU 0x20000
  1045                                  
  1046                                  ; El orden queda little-endian para usar menos instrucciones, ya que 
  1047                                  ; los procesadores Intel usan little-endian.
  1048                                  OFFS_FILA       EQU 0               ;Fila (fracción, luego entero)
  1049                                  OFFS_COLUMNA    EQU OFFS_FILA+2     ;Columna (fracción, luego entero)
  1050                                  OFFS_DELTAX     EQU OFFS_COLUMNA+2  ;Delta X (fracción, luego entero)
  1051                                  OFFS_DELTAY     EQU OFFS_DELTAX+2   ;Delta Y (fracción, luego entero)
  1052                                  LONG_ESTRUCTURA_POR_LETRA EQU OFFS_DELTAY+2
  1053                                  
  1054                                  VARS_LETRAS equ BUFFER_DOBLE_OFFS+2*CANT_FILAS*COLS_POR_FILA
  1055                                  semilla equ VARS_LETRAS+CANT_LETRAS*LONG_ESTRUCTURA_POR_LETRA
  1056                                  FLAG_INT equ semilla + 4
  1057                                  BUFFER_VIDEO equ 0xb8000
  1058                                  
  1059                                  pasaje_aMP:     
  1060                                       
  1061 00001456 FA                           cli         ;El pasaje a modo protegido debe hacerse sin interrupciones.
  1062 00001457 2E0F0116[4013]               lgdt [cs:imagen_gdtr]  ;Cargar registro GDTR.
  1063                                       
  1064 0000145D 0F20C0                       mov eax, cr0           ;Pasar a modo protegido encendiendo bit cero
  1065 00001460 6683C801                     or  eax, 1             ;de CR0.
  1066 00001464 0F22C0                       mov cr0, eax
  1067                                       
  1068 00001467 EA[9C14]0800                 jmp CS_SEL:inicio_32   ;Saltar al segmento de 32 bits.
  1069                                       
  1070                                    BITS 32   
  1071                                  
  1072                                  ;Subrutina para calcular número aleatorio actualizando la semilla.
  1073                                  ;Entrada: Registro ESI: Rango del número aleatorio: de 0 a ESI-1.
  1074                                  ;Salida: Registro EDX: Número aleatorio.
  1075                                  nro_aleatorio: 
  1076 0000146C B8A1B0B912                   mov eax, 314159265
  1077 00001471 F725D00F0200                 mul dword [semilla]    ;Producto en EDX:EAX
  1078 00001477 0567452301                   add eax, 0x1234567
  1079 0000147C A3D00F0200                   mov [semilla], eax
  1080 00001481 F7E6                         mul esi                ;Producto en EDX:EAX
  1081 00001483 C3                           ret                    ;0 <= EDX < ESI como se pide.
  1082                                  
  1083                                  ;Este manejador se ejecuta cada vez que el timer llega a cero.
  1084                                  ;Esto ocurre 18.2 veces por segundo (es decir, cada 55 milisegundos).
  1085                                  handler_timer:
  1086 00001484 1E                           push ds                ;Preservar registros de segmentación.
  1087 00001485 06                           push es
  1088 00001486 60                           pushad                 ;Preservar registros de uso general.
  1089                                        
  1090 00001487 66B81000                     mov ax, DS_SEL         ;Cargar registro de segmento de datos
  1091 0000148B 8ED8                         mov ds, ax             ;ya que no se sabe cuál es valor fuera del
  1092                                                              ;manejador.      
  1093 0000148D C605D40F020001               mov byte [FLAG_INT],1  ;Setear flag para indicar que pasó el tiempo.
  1094 00001494 B020                         mov al, 0x20           ;Enviar End Of Interrupt (EOI) al PIC.
  1095 00001496 E620                         out 0x20, al
  1096                                        
  1097 00001498 61                           popad                  ;Restaurar registros de uso general.
  1098 00001499 07                           pop es                 ;Restaurar registros de segmentación.
  1099 0000149A 1F                           pop ds
  1100 0000149B CF                           iretd                  ;Fin de manejador de interrupción (d = 32 bits).
  1101                                        
  1102                                  inicio_32:
  1103                                    
  1104 0000149C 6687DB                   xchg bx,bx
  1105 0000149F 66B81000                     mov ax, DS_SEL         ;Cargar registros de segmentos de datos y pila.
  1106 000014A3 8ED8                         mov ds, ax
  1107 000014A5 8EC0                         mov es, ax      
  1108 000014A7 8ED0                         mov ss, ax
  1109 000014A9 BC00500000                   mov esp, 0x5000
  1110                                       
  1111                                  ;Inicializo el PIC
  1112                                  ;Escribo en bx = 0x2028 para que me me interrumpan ahi
  1113 000014AE 66BB2820                     mov bx, 0x2028
  1114 000014B2 B011                         mov al, 11h            ;IRQs activas x flanco, 
  1115 000014B4 E620                         out 20h, al
  1116 000014B6 88F8                         mov al, bh             ;El PIC Nº1 arranca en INT tipo indicado por BH.
  1117 000014B8 E621                         out 21h, al
  1118 000014BA B004                         mov al, 04h            ;PIC 1 Master, Slave ingresa 
  1119 000014BC E621                         out 21h, al
  1120 000014BE B001                         mov al, 01h            ;Modo 8086
  1121 000014C0 E621                         out 21h, al
  1122 000014C2 B0FE                         mov al, 0FEh           ;Máscara de interrupciones del primer PIC:
  1123 000014C4 E621                         out 21h, al            ;11111110 -> IRQ0 habilitado, el resto deshabilitado.
  1124                                  ; Ahora inicializamos el PIC Nº2
  1125                                  ; ICW1
  1126 000014C6 B011                         mov al, 11h            ;IRQs activas x flanco,cascada, 
  1127 000014C8 E6A0                         out 0A0h, al
  1128                                  ; ICW2
  1129 000014CA 88D8                         mov al, bl             ;El PIC Nº2 arranca en INT tipo indicado por BL.
  1130 000014CC E6A1                         out 0A1h, al
  1131                                  ; ICW3
  1132 000014CE B002                         mov al, 02h            ;PIC2 Slave, ingresa Int x IRQ2
  1133 000014D0 E6A1                         out 0A1h, al
  1134                                  ; ICW4
  1135 000014D2 B001                         mov al, 01h            ;Modo 8086
  1136 000014D4 E6A1                         out 0A1h, al
  1137                                  ; Enmascaramos el resto de las Interrupciones
  1138                                  ; (las del PIC Nº2)
  1139 000014D6 B0FF                         mov al, 0FFh           ;Máscara de interrupciones del primer PIC:
  1140 000014D8 E6A1                         out 0A1h, al           ;11111111 -> Todas las interrupciones deshabilitadas.
  1141                                       
  1142 000014DA 2E0F011D[50140000]           lidt [cs:imagen_idtr]  ;Cargar el registro IDTR.
  1143                                        
  1144 000014E2 0F31                         rdtsc; EDX:EAX 
  1145 000014E4 A3D00F0200                   mov [semilla], eax
  1146                                  ;Inicializar el array de estructuras correspondiente a cada letra.
  1147 000014E9 BBA00F0200                   mov ebx, VARS_LETRAS   ;Offset (dirección efectiva) del array.
  1148 000014EE B906000000                   mov ecx, CANT_LETRAS   ;Cantidad de elementos del array.
  1149                                  ciclo_init:
  1150 000014F3 BE00190000                   mov esi,CANT_FILAS*256
  1151 000014F8 E86FFFFFFF                   call nro_aleatorio
  1152 000014FD 668913                       mov [ebx+OFFS_FILA],dx    ;Fracción y entero del número de fila.
  1153 00001500 BE00500000                   mov esi,COLS_POR_FILA*256
  1154 00001505 E862FFFFFF                   call nro_aleatorio
  1155 0000150A 66895302                     mov [ebx+OFFS_COLUMNA],dx ;Fracción y entero del número de columna.
  1156 0000150E BE80000000                   mov esi,MAX_VELOCIDAD*2
  1157 00001513 E854FFFFFF                   call nro_aleatorio     
  1158 00001518 83EA40                       sub edx,MAX_VELOCIDAD     ;Convertir a rango -MAX_VELOCIDAD a MAX_VELOCIDAD
  1159 0000151B 66895304                     mov [ebx+OFFS_DELTAX],dx  ;Fracción y entero de la velocidad horizontal.
  1160 0000151F BE80000000                   mov esi,MAX_VELOCIDAD*2
  1161 00001524 E843FFFFFF                   call nro_aleatorio     
  1162 00001529 83EA40                       sub edx,MAX_VELOCIDAD     ;Convertir a rango -MAX_VELOCIDAD a MAX_VELOCIDAD
  1163 0000152C 66895306                     mov [ebx+OFFS_DELTAY],dx  ;Fracción y entero de la velocidad vertical.
  1164                                       
  1165 00001530 83C308                       add ebx,LONG_ESTRUCTURA_POR_LETRA ;Apuntar al siguiente elemento del array.
  1166 00001533 E2BE                         loop ciclo_init ;decrementa ecx y salta si no es 0
  1167                                      ;En instrcucciones de cadena:
  1168                                      ;Instruccion std -> decrementa puntero (flag dirección <- 1).
  1169                                      ;Instruccion cld -> incrementa puntero (flag dirección <- 0).
  1170                                  ;Programar el timer cero para que interrumpa 18,2 veces por segundo.
  1171 00001535 B036                         mov al, 0x36              ;Timer counter cero (bits 7-6).
  1172 00001537 E643                         out 0x43, al
  1173 00001539 B000                         mov al,0
  1174 0000153B E640                         out 0x40, al              ;Escribir el byte menos significativo de la cuenta.
  1175 0000153D E640                         out 0x40, al              ;Escribir el byte más significativo de la cuenta.
  1176 0000153F FB                           sti                       ;Habilitar interrupciones.
  1177                                  ;Arranca ciclo principal de animación.    
  1178                                  ciclo_anim:
  1179                                  ;Borrar buffer doble.
  1180 00001540 FC                           cld                ;La instrucción de cadena incrementa puntero.
  1181 00001541 BF00000200                   mov edi, BUFFER_DOBLE_OFFS
  1182 00001546 B9D0070000                   mov ecx, CANT_FILAS * COLS_POR_FILA
  1183 0000154B 66B82007                     mov ax, 0x0720     ;Espacio con atributo blanco sobre negro
  1184 0000154F F366AB                       rep stosw          ;Operatoria de esta instrcción de cadena:
  1185                                                          ;[ES:EDI] <- AX
  1186                                                          ;EDI <- EDI +/- 2 (signo según flag de dirección)
  1187                                                          ;ECX <- ECX - 1
  1188                                                          ;Repite instrucción si ECX es distinto de cero.
  1189                                  ;Poner las letras en el buffer doble.
  1190 00001552 BBA00F0200                   mov ebx, VARS_LETRAS
  1191 00001557 B906000000                   mov ecx, CANT_LETRAS
  1192 0000155C B241                         mov dl,'A'
  1193                                  ciclo_mostrar_letras:
  1194                                  ;Hallar ubicación de la letra en el buffer doble: 2*(fila*COLS_POR_FILA+columna).
  1195 0000155E B050                         mov al,COLS_POR_FILA
  1196 00001560 F66301                       mul byte [ebx+OFFS_FILA+1]     ;Producto en AX.
  1197 00001563 024303                       add al, [ebx+OFFS_COLUMNA+1]   ;Otra posibilidad (movzx dx, byte[ebx+2])
  1198 00001566 80D400                       adc ah, 0                      ;add ax,dx (mov con zero extend)
  1199 00001569 0FB7C0                       movzx eax, ax                  ;Completar producto a 32 bits.
  1200 0000156C 88940000000200               mov [BUFFER_DOBLE_OFFS+eax*2],dl ;Poner la letra en el buffer doble.
  1201 00001573 83C308                       add ebx,LONG_ESTRUCTURA_POR_LETRA ;Apuntar al siguiente elemento del array.
  1202 00001576 FEC2                         inc dl                         ;Indicar siguiente letra (en ASCII).
  1203 00001578 E2E4                         loop ciclo_mostrar_letras      ;Cerrar ciclo (decrementar ECX y saltar si no es cero).
  1204                                  ;Copiar buffer doble a buffer de video.
  1205 0000157A BE00000200                   mov esi, BUFFER_DOBLE_OFFS     ;Puntero origen de datos.
  1206 0000157F BF00800B00                   mov edi, BUFFER_VIDEO          ;Puntero destino de datos.
  1207 00001584 B9D0070000                   mov ecx, COLS_POR_FILA*CANT_FILAS 
  1208 00001589 F366A5                       rep movsw          ;Operatoria de esta instrcción de cadena:
  1209                                                          ;WORD [ES:EDI] <- WORD [DS:ESI]
  1210                                                          ;ESI <- ESI +/- 2 (signo según flag de dirección)
  1211                                                          ;EDI <- EDI +/- 2 (signo según flag de dirección)
  1212                                                          ;ECX <- ECX - 1
  1213                                                          ;Repite instrucción si ECX es distinto de cero.
  1214                                  ;Actualizar posición de las letras.
  1215 0000158C BBA00F0200                   mov ebx, VARS_LETRAS
  1216 00001591 B906000000                   mov ecx, CANT_LETRAS
  1217                                  actualizar_posic_letras:
  1218                                  ;Actualizar columna.
  1219 00001596 668B4302                     mov ax,[EBX+OFFS_COLUMNA]   ;Obtener columna.
  1220 0000159A 66034304                     add ax,[EBX+OFFS_DELTAX]    ;Sumar velocidad horizontal.
  1221 0000159E 663D0050                     cmp ax,COLS_POR_FILA * 256  ;Verificar si la letra llegó al tope.
  1222 000015A2 720C                         jb guardar_columna          ;Saltar si no es así.
  1223 000015A4 66F75B04                     neg word [EBX+OFFS_DELTAX]  ;Cambiar signo de la velocidad horizontal.
  1224 000015A8 668B4302                     mov ax,[EBX+OFFS_COLUMNA]   ;Obtener colummna.
  1225 000015AC 66034304                     add ax,[EBX+OFFS_DELTAX]    ;Sumar velocidad horizontal.
  1226                                  guardar_columna:
  1227 000015B0 66894302                     mov [EBX+OFFS_COLUMNA],ax   ;Guardar columna
  1228                                  ;Actualizar fila.
  1229 000015B4 668B03                       mov ax,[EBX+OFFS_FILA]      ;Obtener fila.
  1230 000015B7 66034306                     add ax,[EBX+OFFS_DELTAY]    ;Sumar velocidad vertical.
  1231 000015BB 663D0019                     cmp ax,CANT_FILAS * 256     ;Verificar si la letra llegó al tope.
  1232 000015BF 720B                         jb guardar_fila             ;Saltar si no es así.
  1233 000015C1 66F75B06                     neg word [EBX+OFFS_DELTAY]  ;Cambiar signo de la velocidad vertical.
  1234 000015C5 668B03                       mov ax,[EBX+OFFS_FILA]      ;Obtener fila.
  1235 000015C8 66034306                     add ax,[EBX+OFFS_DELTAY]    ;Sumar velocidad vertical.
  1236                                  guardar_fila:
  1237 000015CC 668903                       mov [EBX+OFFS_FILA],ax      ;Guardar fila.
  1238                                  
  1239 000015CF 83C308                       add ebx,LONG_ESTRUCTURA_POR_LETRA ;Apuntar al siguiente elemento del array.
  1240 000015D2 E2C2                         loop actualizar_posic_letras  ;Cerrar ciclo (decrementar ECX y saltar si no es cero).
  1241                                       
  1242                                  FIN_LOOP:
  1243 000015D4 803DD40F020001               cmp byte [FLAG_INT], 1        ;Esperar a que llegue el tick de reloj.
  1244 000015DB 75F7                         jne FIN_LOOP
  1245 000015DD C605D40F020000               mov byte [FLAG_INT], 0        ;Apagar el flag para usarlo en la sig. iteración.
  1246 000015E4 E957FFFFFF                   jmp ciclo_anim                ;Continuar animación.
  1247                                       
  1248                                       
  1249 000015E9 00<rept>                     times 0xFFF0 - ($ - inicio) db 0  ;Completar hasta 64 KB - 16 bytes.
  1250                                  
  1251                                       
  1252                                  BITS 16     
  1253                                  reset:
  1254 0000FFF0 E90D00                       jmp inicio
  1255                                       
  1256 0000FFF3 00<rept>                     times 0x10 - ($ -reset) db 0      ;Completar hasta 64 KB.
